   1                     ; C Compiler for STM8 (COSMIC Software)
   2                     ; Parser V4.12.6 - 16 Dec 2021
   3                     ; Generator (Limited) V4.5.4 - 16 Dec 2021
  14                     .const:	section	.text
  15  0000               L3_font_regular:
  16  0000 00            	dc.b	0
  17  0001 00            	dc.b	0
  18  0002 00            	dc.b	0
  19  0003 00            	dc.b	0
  20  0004 00            	dc.b	0
  21  0005 00            	dc.b	0
  22  0006 00            	dc.b	0
  23  0007 00            	dc.b	0
  24  0008 00            	dc.b	0
  25  0009 2f            	dc.b	47
  26  000a 00            	dc.b	0
  27  000b 00            	dc.b	0
  28  000c 00            	dc.b	0
  29  000d 00            	dc.b	0
  30  000e 07            	dc.b	7
  31  000f 00            	dc.b	0
  32  0010 07            	dc.b	7
  33  0011 00            	dc.b	0
  34  0012 00            	dc.b	0
  35  0013 14            	dc.b	20
  36  0014 7f            	dc.b	127
  37  0015 14            	dc.b	20
  38  0016 7f            	dc.b	127
  39  0017 14            	dc.b	20
  40  0018 00            	dc.b	0
  41  0019 24            	dc.b	36
  42  001a 2a            	dc.b	42
  43  001b 7f            	dc.b	127
  44  001c 2a            	dc.b	42
  45  001d 12            	dc.b	18
  46  001e 00            	dc.b	0
  47  001f 62            	dc.b	98
  48  0020 64            	dc.b	100
  49  0021 08            	dc.b	8
  50  0022 13            	dc.b	19
  51  0023 23            	dc.b	35
  52  0024 00            	dc.b	0
  53  0025 36            	dc.b	54
  54  0026 49            	dc.b	73
  55  0027 55            	dc.b	85
  56  0028 22            	dc.b	34
  57  0029 50            	dc.b	80
  58  002a 00            	dc.b	0
  59  002b 00            	dc.b	0
  60  002c 05            	dc.b	5
  61  002d 03            	dc.b	3
  62  002e 00            	dc.b	0
  63  002f 00            	dc.b	0
  64  0030 00            	dc.b	0
  65  0031 00            	dc.b	0
  66  0032 1c            	dc.b	28
  67  0033 22            	dc.b	34
  68  0034 41            	dc.b	65
  69  0035 00            	dc.b	0
  70  0036 00            	dc.b	0
  71  0037 00            	dc.b	0
  72  0038 41            	dc.b	65
  73  0039 22            	dc.b	34
  74  003a 1c            	dc.b	28
  75  003b 00            	dc.b	0
  76  003c 00            	dc.b	0
  77  003d 14            	dc.b	20
  78  003e 08            	dc.b	8
  79  003f 3e            	dc.b	62
  80  0040 08            	dc.b	8
  81  0041 14            	dc.b	20
  82  0042 00            	dc.b	0
  83  0043 08            	dc.b	8
  84  0044 08            	dc.b	8
  85  0045 3e            	dc.b	62
  86  0046 08            	dc.b	8
  87  0047 08            	dc.b	8
  88  0048 00            	dc.b	0
  89  0049 00            	dc.b	0
  90  004a 00            	dc.b	0
  91  004b a0            	dc.b	160
  92  004c 60            	dc.b	96
  93  004d 00            	dc.b	0
  94  004e 00            	dc.b	0
  95  004f 08            	dc.b	8
  96  0050 08            	dc.b	8
  97  0051 08            	dc.b	8
  98  0052 08            	dc.b	8
  99  0053 08            	dc.b	8
 100  0054 00            	dc.b	0
 101  0055 00            	dc.b	0
 102  0056 60            	dc.b	96
 103  0057 60            	dc.b	96
 104  0058 00            	dc.b	0
 105  0059 00            	dc.b	0
 106  005a 00            	dc.b	0
 107  005b 20            	dc.b	32
 108  005c 10            	dc.b	16
 109  005d 08            	dc.b	8
 110  005e 04            	dc.b	4
 111  005f 02            	dc.b	2
 112  0060 00            	dc.b	0
 113  0061 3e            	dc.b	62
 114  0062 51            	dc.b	81
 115  0063 49            	dc.b	73
 116  0064 45            	dc.b	69
 117  0065 3e            	dc.b	62
 118  0066 00            	dc.b	0
 119  0067 00            	dc.b	0
 120  0068 42            	dc.b	66
 121  0069 7f            	dc.b	127
 122  006a 40            	dc.b	64
 123  006b 00            	dc.b	0
 124  006c 00            	dc.b	0
 125  006d 42            	dc.b	66
 126  006e 61            	dc.b	97
 127  006f 51            	dc.b	81
 128  0070 49            	dc.b	73
 129  0071 46            	dc.b	70
 130  0072 00            	dc.b	0
 131  0073 21            	dc.b	33
 132  0074 41            	dc.b	65
 133  0075 45            	dc.b	69
 134  0076 4b            	dc.b	75
 135  0077 31            	dc.b	49
 136  0078 00            	dc.b	0
 137  0079 18            	dc.b	24
 138  007a 14            	dc.b	20
 139  007b 12            	dc.b	18
 140  007c 7f            	dc.b	127
 141  007d 10            	dc.b	16
 142  007e 00            	dc.b	0
 143  007f 27            	dc.b	39
 144  0080 45            	dc.b	69
 145  0081 45            	dc.b	69
 146  0082 45            	dc.b	69
 147  0083 39            	dc.b	57
 148  0084 00            	dc.b	0
 149  0085 3c            	dc.b	60
 150  0086 4a            	dc.b	74
 151  0087 49            	dc.b	73
 152  0088 49            	dc.b	73
 153  0089 30            	dc.b	48
 154  008a 00            	dc.b	0
 155  008b 01            	dc.b	1
 156  008c 71            	dc.b	113
 157  008d 09            	dc.b	9
 158  008e 05            	dc.b	5
 159  008f 03            	dc.b	3
 160  0090 00            	dc.b	0
 161  0091 36            	dc.b	54
 162  0092 49            	dc.b	73
 163  0093 49            	dc.b	73
 164  0094 49            	dc.b	73
 165  0095 36            	dc.b	54
 166  0096 00            	dc.b	0
 167  0097 06            	dc.b	6
 168  0098 49            	dc.b	73
 169  0099 49            	dc.b	73
 170  009a 29            	dc.b	41
 171  009b 1e            	dc.b	30
 172  009c 00            	dc.b	0
 173  009d 00            	dc.b	0
 174  009e 36            	dc.b	54
 175  009f 36            	dc.b	54
 176  00a0 00            	dc.b	0
 177  00a1 00            	dc.b	0
 178  00a2 00            	dc.b	0
 179  00a3 00            	dc.b	0
 180  00a4 56            	dc.b	86
 181  00a5 36            	dc.b	54
 182  00a6 00            	dc.b	0
 183  00a7 00            	dc.b	0
 184  00a8 00            	dc.b	0
 185  00a9 08            	dc.b	8
 186  00aa 14            	dc.b	20
 187  00ab 22            	dc.b	34
 188  00ac 41            	dc.b	65
 189  00ad 00            	dc.b	0
 190  00ae 00            	dc.b	0
 191  00af 14            	dc.b	20
 192  00b0 14            	dc.b	20
 193  00b1 14            	dc.b	20
 194  00b2 14            	dc.b	20
 195  00b3 14            	dc.b	20
 196  00b4 00            	dc.b	0
 197  00b5 00            	dc.b	0
 198  00b6 41            	dc.b	65
 199  00b7 22            	dc.b	34
 200  00b8 14            	dc.b	20
 201  00b9 08            	dc.b	8
 202  00ba 00            	dc.b	0
 203  00bb 02            	dc.b	2
 204  00bc 01            	dc.b	1
 205  00bd 51            	dc.b	81
 206  00be 09            	dc.b	9
 207  00bf 06            	dc.b	6
 208  00c0 00            	dc.b	0
 209  00c1 32            	dc.b	50
 210  00c2 49            	dc.b	73
 211  00c3 59            	dc.b	89
 212  00c4 51            	dc.b	81
 213  00c5 3e            	dc.b	62
 214  00c6 00            	dc.b	0
 215  00c7 7c            	dc.b	124
 216  00c8 12            	dc.b	18
 217  00c9 11            	dc.b	17
 218  00ca 12            	dc.b	18
 219  00cb 7c            	dc.b	124
 220  00cc 00            	dc.b	0
 221  00cd 7f            	dc.b	127
 222  00ce 49            	dc.b	73
 223  00cf 49            	dc.b	73
 224  00d0 49            	dc.b	73
 225  00d1 36            	dc.b	54
 226  00d2 00            	dc.b	0
 227  00d3 3e            	dc.b	62
 228  00d4 41            	dc.b	65
 229  00d5 41            	dc.b	65
 230  00d6 41            	dc.b	65
 231  00d7 22            	dc.b	34
 232  00d8 00            	dc.b	0
 233  00d9 7f            	dc.b	127
 234  00da 41            	dc.b	65
 235  00db 41            	dc.b	65
 236  00dc 22            	dc.b	34
 237  00dd 1c            	dc.b	28
 238  00de 00            	dc.b	0
 239  00df 7f            	dc.b	127
 240  00e0 49            	dc.b	73
 241  00e1 49            	dc.b	73
 242  00e2 49            	dc.b	73
 243  00e3 41            	dc.b	65
 244  00e4 00            	dc.b	0
 245  00e5 7f            	dc.b	127
 246  00e6 09            	dc.b	9
 247  00e7 09            	dc.b	9
 248  00e8 09            	dc.b	9
 249  00e9 01            	dc.b	1
 250  00ea 00            	dc.b	0
 251  00eb 3e            	dc.b	62
 252  00ec 41            	dc.b	65
 253  00ed 49            	dc.b	73
 254  00ee 49            	dc.b	73
 255  00ef 7a            	dc.b	122
 256  00f0 00            	dc.b	0
 257  00f1 7f            	dc.b	127
 258  00f2 08            	dc.b	8
 259  00f3 08            	dc.b	8
 260  00f4 08            	dc.b	8
 261  00f5 7f            	dc.b	127
 262  00f6 00            	dc.b	0
 263  00f7 00            	dc.b	0
 264  00f8 41            	dc.b	65
 265  00f9 7f            	dc.b	127
 266  00fa 41            	dc.b	65
 267  00fb 00            	dc.b	0
 268  00fc 00            	dc.b	0
 269  00fd 20            	dc.b	32
 270  00fe 40            	dc.b	64
 271  00ff 41            	dc.b	65
 272  0100 3f            	dc.b	63
 273  0101 01            	dc.b	1
 274  0102 00            	dc.b	0
 275  0103 7f            	dc.b	127
 276  0104 08            	dc.b	8
 277  0105 14            	dc.b	20
 278  0106 22            	dc.b	34
 279  0107 41            	dc.b	65
 280  0108 00            	dc.b	0
 281  0109 7f            	dc.b	127
 282  010a 40            	dc.b	64
 283  010b 40            	dc.b	64
 284  010c 40            	dc.b	64
 285  010d 40            	dc.b	64
 286  010e 00            	dc.b	0
 287  010f 7f            	dc.b	127
 288  0110 02            	dc.b	2
 289  0111 0c            	dc.b	12
 290  0112 02            	dc.b	2
 291  0113 7f            	dc.b	127
 292  0114 00            	dc.b	0
 293  0115 7f            	dc.b	127
 294  0116 04            	dc.b	4
 295  0117 08            	dc.b	8
 296  0118 10            	dc.b	16
 297  0119 7f            	dc.b	127
 298  011a 00            	dc.b	0
 299  011b 3e            	dc.b	62
 300  011c 41            	dc.b	65
 301  011d 41            	dc.b	65
 302  011e 41            	dc.b	65
 303  011f 3e            	dc.b	62
 304  0120 00            	dc.b	0
 305  0121 7f            	dc.b	127
 306  0122 09            	dc.b	9
 307  0123 09            	dc.b	9
 308  0124 09            	dc.b	9
 309  0125 06            	dc.b	6
 310  0126 00            	dc.b	0
 311  0127 3e            	dc.b	62
 312  0128 41            	dc.b	65
 313  0129 51            	dc.b	81
 314  012a 21            	dc.b	33
 315  012b 5e            	dc.b	94
 316  012c 00            	dc.b	0
 317  012d 7f            	dc.b	127
 318  012e 09            	dc.b	9
 319  012f 19            	dc.b	25
 320  0130 29            	dc.b	41
 321  0131 46            	dc.b	70
 322  0132 00            	dc.b	0
 323  0133 46            	dc.b	70
 324  0134 49            	dc.b	73
 325  0135 49            	dc.b	73
 326  0136 49            	dc.b	73
 327  0137 31            	dc.b	49
 328  0138 00            	dc.b	0
 329  0139 01            	dc.b	1
 330  013a 01            	dc.b	1
 331  013b 7f            	dc.b	127
 332  013c 01            	dc.b	1
 333  013d 01            	dc.b	1
 334  013e 00            	dc.b	0
 335  013f 3f            	dc.b	63
 336  0140 40            	dc.b	64
 337  0141 40            	dc.b	64
 338  0142 40            	dc.b	64
 339  0143 3f            	dc.b	63
 340  0144 00            	dc.b	0
 341  0145 1f            	dc.b	31
 342  0146 20            	dc.b	32
 343  0147 40            	dc.b	64
 344  0148 20            	dc.b	32
 345  0149 1f            	dc.b	31
 346  014a 00            	dc.b	0
 347  014b 3f            	dc.b	63
 348  014c 40            	dc.b	64
 349  014d 38            	dc.b	56
 350  014e 40            	dc.b	64
 351  014f 3f            	dc.b	63
 352  0150 00            	dc.b	0
 353  0151 63            	dc.b	99
 354  0152 14            	dc.b	20
 355  0153 08            	dc.b	8
 356  0154 14            	dc.b	20
 357  0155 63            	dc.b	99
 358  0156 00            	dc.b	0
 359  0157 07            	dc.b	7
 360  0158 08            	dc.b	8
 361  0159 70            	dc.b	112
 362  015a 08            	dc.b	8
 363  015b 07            	dc.b	7
 364  015c 00            	dc.b	0
 365  015d 61            	dc.b	97
 366  015e 51            	dc.b	81
 367  015f 49            	dc.b	73
 368  0160 45            	dc.b	69
 369  0161 43            	dc.b	67
 370  0162 00            	dc.b	0
 371  0163 00            	dc.b	0
 372  0164 7f            	dc.b	127
 373  0165 41            	dc.b	65
 374  0166 41            	dc.b	65
 375  0167 00            	dc.b	0
 376  0168 00            	dc.b	0
 377  0169 02            	dc.b	2
 378  016a 04            	dc.b	4
 379  016b 08            	dc.b	8
 380  016c 10            	dc.b	16
 381  016d 20            	dc.b	32
 382  016e 00            	dc.b	0
 383  016f 00            	dc.b	0
 384  0170 41            	dc.b	65
 385  0171 41            	dc.b	65
 386  0172 7f            	dc.b	127
 387  0173 00            	dc.b	0
 388  0174 00            	dc.b	0
 389  0175 04            	dc.b	4
 390  0176 02            	dc.b	2
 391  0177 01            	dc.b	1
 392  0178 02            	dc.b	2
 393  0179 04            	dc.b	4
 394  017a 00            	dc.b	0
 395  017b 40            	dc.b	64
 396  017c 40            	dc.b	64
 397  017d 40            	dc.b	64
 398  017e 40            	dc.b	64
 399  017f 40            	dc.b	64
 400  0180 00            	dc.b	0
 401  0181 00            	dc.b	0
 402  0182 01            	dc.b	1
 403  0183 02            	dc.b	2
 404  0184 04            	dc.b	4
 405  0185 00            	dc.b	0
 406  0186 00            	dc.b	0
 407  0187 20            	dc.b	32
 408  0188 54            	dc.b	84
 409  0189 54            	dc.b	84
 410  018a 54            	dc.b	84
 411  018b 78            	dc.b	120
 412  018c 00            	dc.b	0
 413  018d 7f            	dc.b	127
 414  018e 48            	dc.b	72
 415  018f 44            	dc.b	68
 416  0190 44            	dc.b	68
 417  0191 38            	dc.b	56
 418  0192 00            	dc.b	0
 419  0193 38            	dc.b	56
 420  0194 44            	dc.b	68
 421  0195 44            	dc.b	68
 422  0196 44            	dc.b	68
 423  0197 20            	dc.b	32
 424  0198 00            	dc.b	0
 425  0199 38            	dc.b	56
 426  019a 44            	dc.b	68
 427  019b 44            	dc.b	68
 428  019c 48            	dc.b	72
 429  019d 7f            	dc.b	127
 430  019e 00            	dc.b	0
 431  019f 38            	dc.b	56
 432  01a0 54            	dc.b	84
 433  01a1 54            	dc.b	84
 434  01a2 54            	dc.b	84
 435  01a3 18            	dc.b	24
 436  01a4 00            	dc.b	0
 437  01a5 08            	dc.b	8
 438  01a6 7e            	dc.b	126
 439  01a7 09            	dc.b	9
 440  01a8 01            	dc.b	1
 441  01a9 02            	dc.b	2
 442  01aa 00            	dc.b	0
 443  01ab 18            	dc.b	24
 444  01ac a4            	dc.b	164
 445  01ad a4            	dc.b	164
 446  01ae a4            	dc.b	164
 447  01af 7c            	dc.b	124
 448  01b0 00            	dc.b	0
 449  01b1 7f            	dc.b	127
 450  01b2 08            	dc.b	8
 451  01b3 04            	dc.b	4
 452  01b4 04            	dc.b	4
 453  01b5 78            	dc.b	120
 454  01b6 00            	dc.b	0
 455  01b7 00            	dc.b	0
 456  01b8 44            	dc.b	68
 457  01b9 7d            	dc.b	125
 458  01ba 40            	dc.b	64
 459  01bb 00            	dc.b	0
 460  01bc 00            	dc.b	0
 461  01bd 40            	dc.b	64
 462  01be 80            	dc.b	128
 463  01bf 84            	dc.b	132
 464  01c0 7d            	dc.b	125
 465  01c1 00            	dc.b	0
 466  01c2 00            	dc.b	0
 467  01c3 7f            	dc.b	127
 468  01c4 10            	dc.b	16
 469  01c5 28            	dc.b	40
 470  01c6 44            	dc.b	68
 471  01c7 00            	dc.b	0
 472  01c8 00            	dc.b	0
 473  01c9 00            	dc.b	0
 474  01ca 41            	dc.b	65
 475  01cb 7f            	dc.b	127
 476  01cc 40            	dc.b	64
 477  01cd 00            	dc.b	0
 478  01ce 00            	dc.b	0
 479  01cf 7c            	dc.b	124
 480  01d0 04            	dc.b	4
 481  01d1 18            	dc.b	24
 482  01d2 04            	dc.b	4
 483  01d3 78            	dc.b	120
 484  01d4 00            	dc.b	0
 485  01d5 7c            	dc.b	124
 486  01d6 08            	dc.b	8
 487  01d7 04            	dc.b	4
 488  01d8 04            	dc.b	4
 489  01d9 78            	dc.b	120
 490  01da 00            	dc.b	0
 491  01db 38            	dc.b	56
 492  01dc 44            	dc.b	68
 493  01dd 44            	dc.b	68
 494  01de 44            	dc.b	68
 495  01df 38            	dc.b	56
 496  01e0 00            	dc.b	0
 497  01e1 fc            	dc.b	252
 498  01e2 24            	dc.b	36
 499  01e3 24            	dc.b	36
 500  01e4 24            	dc.b	36
 501  01e5 18            	dc.b	24
 502  01e6 00            	dc.b	0
 503  01e7 18            	dc.b	24
 504  01e8 24            	dc.b	36
 505  01e9 24            	dc.b	36
 506  01ea 18            	dc.b	24
 507  01eb fc            	dc.b	252
 508  01ec 00            	dc.b	0
 509  01ed 7c            	dc.b	124
 510  01ee 08            	dc.b	8
 511  01ef 04            	dc.b	4
 512  01f0 04            	dc.b	4
 513  01f1 08            	dc.b	8
 514  01f2 00            	dc.b	0
 515  01f3 48            	dc.b	72
 516  01f4 54            	dc.b	84
 517  01f5 54            	dc.b	84
 518  01f6 54            	dc.b	84
 519  01f7 20            	dc.b	32
 520  01f8 00            	dc.b	0
 521  01f9 04            	dc.b	4
 522  01fa 3f            	dc.b	63
 523  01fb 44            	dc.b	68
 524  01fc 40            	dc.b	64
 525  01fd 20            	dc.b	32
 526  01fe 00            	dc.b	0
 527  01ff 3c            	dc.b	60
 528  0200 40            	dc.b	64
 529  0201 40            	dc.b	64
 530  0202 20            	dc.b	32
 531  0203 7c            	dc.b	124
 532  0204 00            	dc.b	0
 533  0205 1c            	dc.b	28
 534  0206 20            	dc.b	32
 535  0207 40            	dc.b	64
 536  0208 20            	dc.b	32
 537  0209 1c            	dc.b	28
 538  020a 00            	dc.b	0
 539  020b 3c            	dc.b	60
 540  020c 40            	dc.b	64
 541  020d 30            	dc.b	48
 542  020e 40            	dc.b	64
 543  020f 3c            	dc.b	60
 544  0210 00            	dc.b	0
 545  0211 44            	dc.b	68
 546  0212 28            	dc.b	40
 547  0213 10            	dc.b	16
 548  0214 28            	dc.b	40
 549  0215 44            	dc.b	68
 550  0216 00            	dc.b	0
 551  0217 1c            	dc.b	28
 552  0218 a0            	dc.b	160
 553  0219 a0            	dc.b	160
 554  021a a0            	dc.b	160
 555  021b 7c            	dc.b	124
 556  021c 00            	dc.b	0
 557  021d 44            	dc.b	68
 558  021e 64            	dc.b	100
 559  021f 54            	dc.b	84
 560  0220 4c            	dc.b	76
 561  0221 44            	dc.b	68
 562  0222 14            	dc.b	20
 563  0223 14            	dc.b	20
 564  0224 14            	dc.b	20
 565  0225 14            	dc.b	20
 566  0226 14            	dc.b	20
 567  0227 14            	dc.b	20
 568  0228               _water_Full:
 569  0228 00            	dc.b	0
 570  0229 80            	dc.b	128
 571  022a c0            	dc.b	192
 572  022b e0            	dc.b	224
 573  022c 30            	dc.b	48
 574  022d 18            	dc.b	24
 575  022e 0c            	dc.b	12
 576  022f 06            	dc.b	6
 577  0230 47            	dc.b	71
 578  0231 8e            	dc.b	142
 579  0232 1c            	dc.b	28
 580  0233 38            	dc.b	56
 581  0234 f0            	dc.b	240
 582  0235 e0            	dc.b	224
 583  0236 10            	dc.b	16
 584  0237 00            	dc.b	0
 585  0238 00            	dc.b	0
 586  0239 0f            	dc.b	15
 587  023a 1f            	dc.b	31
 588  023b 38            	dc.b	56
 589  023c 60            	dc.b	96
 590  023d 62            	dc.b	98
 591  023e 48            	dc.b	72
 592  023f 50            	dc.b	80
 593  0240 40            	dc.b	64
 594  0241 40            	dc.b	64
 595  0242 60            	dc.b	96
 596  0243 60            	dc.b	96
 597  0244 39            	dc.b	57
 598  0245 1f            	dc.b	31
 599  0246 0f            	dc.b	15
 600  0247 00            	dc.b	0
 601  0248               _water_Low:
 602  0248 00            	dc.b	0
 603  0249 80            	dc.b	128
 604  024a c0            	dc.b	192
 605  024b e0            	dc.b	224
 606  024c f0            	dc.b	240
 607  024d f8            	dc.b	248
 608  024e fc            	dc.b	252
 609  024f fe            	dc.b	254
 610  0250 bf            	dc.b	191
 611  0251 3e            	dc.b	62
 612  0252 7c            	dc.b	124
 613  0253 f8            	dc.b	248
 614  0254 f0            	dc.b	240
 615  0255 e0            	dc.b	224
 616  0256 80            	dc.b	128
 617  0257 00            	dc.b	0
 618  0258 00            	dc.b	0
 619  0259 0f            	dc.b	15
 620  025a 1f            	dc.b	31
 621  025b 3f            	dc.b	63
 622  025c 75            	dc.b	117
 623  025d 65            	dc.b	101
 624  025e 4f            	dc.b	79
 625  025f 5f            	dc.b	95
 626  0260 5f            	dc.b	95
 627  0261 5f            	dc.b	95
 628  0262 5f            	dc.b	95
 629  0263 7c            	dc.b	124
 630  0264 3f            	dc.b	63
 631  0265 1f            	dc.b	31
 632  0266 0f            	dc.b	15
 633  0267 00            	dc.b	0
 634  0268               _water_bottle:
 635  0268 00            	dc.b	0
 636  0269 00            	dc.b	0
 637  026a 00            	dc.b	0
 638  026b 80            	dc.b	128
 639  026c c6            	dc.b	198
 640  026d fe            	dc.b	254
 641  026e ff            	dc.b	255
 642  026f ff            	dc.b	255
 643  0270 ee            	dc.b	238
 644  0271 c4            	dc.b	196
 645  0272 80            	dc.b	128
 646  0273 00            	dc.b	0
 647  0274 00            	dc.b	0
 648  0275 00            	dc.b	0
 649  0276 00            	dc.b	0
 650  0277 00            	dc.b	0
 651  0278 00            	dc.b	0
 652  0279 00            	dc.b	0
 653  027a 0e            	dc.b	14
 654  027b 1f            	dc.b	31
 655  027c 3f            	dc.b	63
 656  027d 31            	dc.b	49
 657  027e 73            	dc.b	115
 658  027f 74            	dc.b	116
 659  0280 7d            	dc.b	125
 660  0281 79            	dc.b	121
 661  0282 39            	dc.b	57
 662  0283 3b            	dc.b	59
 663  0284 1f            	dc.b	31
 664  0285 0a            	dc.b	10
 665  0286 00            	dc.b	0
 666  0287 00            	dc.b	0
 667  0288               _Moisturn_Full:
 668  0288 ff            	dc.b	255
 669  0289 ff            	dc.b	255
 670  028a ff            	dc.b	255
 671  028b f3            	dc.b	243
 672  028c e3            	dc.b	227
 673  028d c7            	dc.b	199
 674  028e 8f            	dc.b	143
 675  028f 9f            	dc.b	159
 676  0290 ff            	dc.b	255
 677  0291 f3            	dc.b	243
 678  0292 f3            	dc.b	243
 679  0293 f3            	dc.b	243
 680  0294 73            	dc.b	115
 681  0295 33            	dc.b	51
 682  0296 13            	dc.b	19
 683  0297 93            	dc.b	147
 684  0298 d3            	dc.b	211
 685  0299 f3            	dc.b	243
 686  029a 73            	dc.b	115
 687  029b 73            	dc.b	115
 688  029c f3            	dc.b	243
 689  029d f3            	dc.b	243
 690  029e 73            	dc.b	115
 691  029f 33            	dc.b	51
 692  02a0 13            	dc.b	19
 693  02a1 93            	dc.b	147
 694  02a2 d3            	dc.b	211
 695  02a3 f3            	dc.b	243
 696  02a4 73            	dc.b	115
 697  02a5 73            	dc.b	115
 698  02a6 ff            	dc.b	255
 699  02a7 ff            	dc.b	255
 700  02a8 ff            	dc.b	255
 701  02a9 ff            	dc.b	255
 702  02aa f3            	dc.b	243
 703  02ab e3            	dc.b	227
 704  02ac c7            	dc.b	199
 705  02ad 8f            	dc.b	143
 706  02ae 9f            	dc.b	159
 707  02af ff            	dc.b	255
 708  02b0 ff            	dc.b	255
 709  02b1 ff            	dc.b	255
 710  02b2 f3            	dc.b	243
 711  02b3 71            	dc.b	113
 712  02b4 30            	dc.b	48
 713  02b5 92            	dc.b	146
 714  02b6 83            	dc.b	131
 715  02b7 e3            	dc.b	227
 716  02b8 71            	dc.b	113
 717  02b9 70            	dc.b	112
 718  02ba fc            	dc.b	252
 719  02bb fe            	dc.b	254
 720  02bc f3            	dc.b	243
 721  02bd 71            	dc.b	113
 722  02be 30            	dc.b	48
 723  02bf 12            	dc.b	18
 724  02c0 83            	dc.b	131
 725  02c1 c3            	dc.b	195
 726  02c2 f1            	dc.b	241
 727  02c3 30            	dc.b	48
 728  02c4 3c            	dc.b	60
 729  02c5 7e            	dc.b	126
 730  02c6 ff            	dc.b	255
 731  02c7 ff            	dc.b	255
 732  02c8 ff            	dc.b	255
 733  02c9 ff            	dc.b	255
 734  02ca ff            	dc.b	255
 735  02cb ff            	dc.b	255
 736  02cc 3f            	dc.b	63
 737  02cd 07            	dc.b	7
 738  02ce 87            	dc.b	135
 739  02cf ff            	dc.b	255
 740  02d0 ff            	dc.b	255
 741  02d1 ff            	dc.b	255
 742  02d2 38            	dc.b	56
 743  02d3 38            	dc.b	56
 744  02d4 3c            	dc.b	60
 745  02d5 3c            	dc.b	60
 746  02d6 3c            	dc.b	60
 747  02d7 3c            	dc.b	60
 748  02d8 3c            	dc.b	60
 749  02d9 38            	dc.b	56
 750  02da 08            	dc.b	8
 751  02db 0f            	dc.b	15
 752  02dc 0f            	dc.b	15
 753  02dd 38            	dc.b	56
 754  02de 3c            	dc.b	60
 755  02df 3c            	dc.b	60
 756  02e0 3c            	dc.b	60
 757  02e1 3c            	dc.b	60
 758  02e2 3c            	dc.b	60
 759  02e3 3c            	dc.b	60
 760  02e4 38            	dc.b	56
 761  02e5 f8            	dc.b	248
 762  02e6 fc            	dc.b	252
 763  02e7 ff            	dc.b	255
 764  02e8 ff            	dc.b	255
 765  02e9 ff            	dc.b	255
 766  02ea e3            	dc.b	227
 767  02eb e0            	dc.b	224
 768  02ec f8            	dc.b	248
 769  02ed fe            	dc.b	254
 770  02ee ff            	dc.b	255
 771  02ef ff            	dc.b	255
 772  02f0 ff            	dc.b	255
 773  02f1 e7            	dc.b	231
 774  02f2 e7            	dc.b	231
 775  02f3 e7            	dc.b	231
 776  02f4 e7            	dc.b	231
 777  02f5 e7            	dc.b	231
 778  02f6 e7            	dc.b	231
 779  02f7 e7            	dc.b	231
 780  02f8 e7            	dc.b	231
 781  02f9 e7            	dc.b	231
 782  02fa e0            	dc.b	224
 783  02fb e0            	dc.b	224
 784  02fc e0            	dc.b	224
 785  02fd e7            	dc.b	231
 786  02fe e7            	dc.b	231
 787  02ff e7            	dc.b	231
 788  0300 e7            	dc.b	231
 789  0301 e7            	dc.b	231
 790  0302 e7            	dc.b	231
 791  0303 e7            	dc.b	231
 792  0304 e7            	dc.b	231
 793  0305 e7            	dc.b	231
 794  0306 e7            	dc.b	231
 795  0307 ff            	dc.b	255
 898                     	switch	.const
 899  0308               L6:
 900  0308 000f4240      	dc.l	1000000
 901                     ; 5 void I2C_setup(void)
 901                     ; 6 {
 902                     	scross	off
 903                     	switch	.text
 904  0000               _I2C_setup:
 908                     ; 7     I2C_DeInit();
 910  0000 cd0000        	call	_I2C_DeInit
 912                     ; 9     I2C_Init(100000, 
 912                     ; 10              SSD1306_I2C_Address, 
 912                     ; 11              I2C_DUTYCYCLE_2, 
 912                     ; 12              I2C_ACK_CURR, 
 912                     ; 13              I2C_ADDMODE_7BIT, 
 912                     ; 14              (CLK_GetClockFreq() / 1000000));
 914  0003 cd0000        	call	_CLK_GetClockFreq
 916  0006 ae0308        	ldw	x,#L6
 917  0009 cd0000        	call	c_ludv
 919  000c b603          	ld	a,c_lreg+3
 920  000e 88            	push	a
 921  000f 4b00          	push	#0
 922  0011 4b01          	push	#1
 923  0013 4b00          	push	#0
 924  0015 ae0078        	ldw	x,#120
 925  0018 89            	pushw	x
 926  0019 ae86a0        	ldw	x,#34464
 927  001c 89            	pushw	x
 928  001d ae0001        	ldw	x,#1
 929  0020 89            	pushw	x
 930  0021 cd0000        	call	_I2C_Init
 932  0024 5b0a          	addw	sp,#10
 933                     ; 16     I2C_Cmd(ENABLE);
 935  0026 a601          	ld	a,#1
 936  0028 cd0000        	call	_I2C_Cmd
 938                     ; 17 }
 941  002b 81            	ret
 965                     ; 20 void OLED_HW_setup(void)
 965                     ; 21 {
 966                     	switch	.text
 967  002c               _OLED_HW_setup:
 971                     ; 22 	I2C_setup();
 973  002c add2          	call	_I2C_setup
 975                     ; 23 }
 978  002e 81            	ret
1004                     ; 26 void OLED_init(void)
1004                     ; 27 {
1005                     	switch	.text
1006  002f               _OLED_init:
1010                     ; 28      OLED_HW_setup();
1012  002f adfb          	call	_OLED_HW_setup
1014                     ; 29      delay_ms(100);
1016  0031 ae0064        	ldw	x,#100
1017  0034 cd0000        	call	_delay_ms
1019                     ; 31      OLED_write((Set_Display_ON_or_OFF_CMD | Display_OFF), SSD1306_CMD);
1021  0037 aeae00        	ldw	x,#44544
1022  003a cd00d2        	call	_OLED_write
1024                     ; 32      OLED_write(Set_Multiplex_Ratio_CMD, SSD1306_CMD);
1026  003d aea800        	ldw	x,#43008
1027  0040 cd00d2        	call	_OLED_write
1029                     ; 33      OLED_write(0x1F, SSD1306_CMD);
1031  0043 ae1f00        	ldw	x,#7936
1032  0046 cd00d2        	call	_OLED_write
1034                     ; 34      OLED_write(Set_Display_Offset_CMD, SSD1306_CMD);
1036  0049 aed300        	ldw	x,#54016
1037  004c cd00d2        	call	_OLED_write
1039                     ; 35      OLED_write(0x00, SSD1306_CMD);
1041  004f 5f            	clrw	x
1042  0050 cd00d2        	call	_OLED_write
1044                     ; 36      OLED_write(Set_Display_Start_Line_CMD, SSD1306_CMD);
1046  0053 ae4000        	ldw	x,#16384
1047  0056 ad7a          	call	_OLED_write
1049                     ; 37      OLED_write((Set_Segment_Remap_CMD | Column_Address_0_Mapped_to_SEG127), SSD1306_CMD);
1051  0058 aea100        	ldw	x,#41216
1052  005b ad75          	call	_OLED_write
1054                     ; 38      OLED_write((Set_COM_Output_Scan_Direction_CMD | Scan_from_COM63_to_0), SSD1306_CMD);
1056  005d aec800        	ldw	x,#51200
1057  0060 ad70          	call	_OLED_write
1059                     ; 39      OLED_write(Set_Common_HW_Config_CMD, SSD1306_CMD);
1061  0062 aeda00        	ldw	x,#55808
1062  0065 ad6b          	call	_OLED_write
1064                     ; 40      OLED_write(0x02, SSD1306_CMD);
1066  0067 ae0200        	ldw	x,#512
1067  006a ad66          	call	_OLED_write
1069                     ; 41      OLED_write(Set_Contrast_Control_CMD, SSD1306_CMD);
1071  006c ae8100        	ldw	x,#33024
1072  006f ad61          	call	_OLED_write
1074                     ; 42      OLED_write(0x8F, SSD1306_CMD);
1076  0071 ae8f00        	ldw	x,#36608
1077  0074 ad5c          	call	_OLED_write
1079                     ; 43      OLED_write(Set_Entire_Display_ON_CMD, SSD1306_CMD);
1081  0076 aea400        	ldw	x,#41984
1082  0079 ad57          	call	_OLED_write
1084                     ; 44      OLED_write(Set_Normal_or_Inverse_Display_CMD, SSD1306_CMD);
1086  007b aea600        	ldw	x,#42496
1087  007e ad52          	call	_OLED_write
1089                     ; 45      OLED_write(Set_Display_Clock_CMD, SSD1306_CMD);
1091  0080 aed500        	ldw	x,#54528
1092  0083 ad4d          	call	_OLED_write
1094                     ; 46      OLED_write(0x80, SSD1306_CMD);
1096  0085 ae8000        	ldw	x,#32768
1097  0088 ad48          	call	_OLED_write
1099                     ; 47      OLED_write(Set_Pre_charge_Period_CMD, SSD1306_CMD);
1101  008a aed900        	ldw	x,#55552
1102  008d ad43          	call	_OLED_write
1104                     ; 48      OLED_write(0xF1, SSD1306_CMD);
1106  008f aef100        	ldw	x,#61696
1107  0092 ad3e          	call	_OLED_write
1109                     ; 49      OLED_write(Set_VCOMH_Level_CMD, SSD1306_CMD);
1111  0094 aedb00        	ldw	x,#56064
1112  0097 ad39          	call	_OLED_write
1114                     ; 50      OLED_write(0x40, SSD1306_CMD);
1116  0099 ae4000        	ldw	x,#16384
1117  009c ad34          	call	_OLED_write
1119                     ; 51      OLED_write(Set_Page_Address_CMD, SSD1306_CMD);
1121  009e ae2200        	ldw	x,#8704
1122  00a1 ad2f          	call	_OLED_write
1124                     ; 52      OLED_write(0x00, SSD1306_CMD);
1126  00a3 5f            	clrw	x
1127  00a4 ad2c          	call	_OLED_write
1129                     ; 53      OLED_write(0x03, SSD1306_CMD);
1131  00a6 ae0300        	ldw	x,#768
1132  00a9 ad27          	call	_OLED_write
1134                     ; 54      OLED_write(Set_Page_Start_Address_CMD , SSD1306_CMD);
1136  00ab aeb000        	ldw	x,#45056
1137  00ae ad22          	call	_OLED_write
1139                     ; 55      OLED_write(Set_Higher_Column_Start_Address_CMD, SSD1306_CMD);
1141  00b0 ae1000        	ldw	x,#4096
1142  00b3 ad1d          	call	_OLED_write
1144                     ; 56      OLED_write(Set_Lower_Column_Start_Address_CMD, SSD1306_CMD);
1146  00b5 5f            	clrw	x
1147  00b6 ad1a          	call	_OLED_write
1149                     ; 57      OLED_write(Set_Memory_Addressing_Mode_CMD, SSD1306_CMD);
1151  00b8 ae2000        	ldw	x,#8192
1152  00bb ad15          	call	_OLED_write
1154                     ; 58      OLED_write(0x02, SSD1306_CMD);
1156  00bd ae0200        	ldw	x,#512
1157  00c0 ad10          	call	_OLED_write
1159                     ; 59      OLED_write(Set_Charge_Pump_CMD, SSD1306_CMD);
1161  00c2 ae8d00        	ldw	x,#36096
1162  00c5 ad0b          	call	_OLED_write
1164                     ; 60      OLED_write(0x14, SSD1306_CMD);
1166  00c7 ae1400        	ldw	x,#5120
1167  00ca ad06          	call	_OLED_write
1169                     ; 61      OLED_write((Set_Display_ON_or_OFF_CMD | Display_ON), SSD1306_CMD);
1171  00cc aeaf00        	ldw	x,#44800
1172  00cf ad01          	call	_OLED_write
1174                     ; 62 }
1177  00d1 81            	ret
1226                     ; 65 void OLED_write(unsigned char value, unsigned char control_byte)
1226                     ; 66 {
1227                     	switch	.text
1228  00d2               _OLED_write:
1230  00d2 89            	pushw	x
1231       00000000      OFST:	set	0
1234  00d3               L321:
1235                     ; 67     while(I2C_GetFlagStatus(I2C_FLAG_BUSBUSY));
1237  00d3 ae0302        	ldw	x,#770
1238  00d6 cd0000        	call	_I2C_GetFlagStatus
1240  00d9 4d            	tnz	a
1241  00da 26f7          	jrne	L321
1242                     ; 69 	I2C_GenerateSTART(ENABLE);
1244  00dc a601          	ld	a,#1
1245  00de cd0000        	call	_I2C_GenerateSTART
1248  00e1               L131:
1249                     ; 70     while(!I2C_CheckEvent(I2C_EVENT_MASTER_MODE_SELECT));
1251  00e1 ae0301        	ldw	x,#769
1252  00e4 cd0000        	call	_I2C_CheckEvent
1254  00e7 4d            	tnz	a
1255  00e8 27f7          	jreq	L131
1256                     ; 72     I2C_Send7bitAddress(SSD1306_I2C_Address, I2C_DIRECTION_TX); 
1258  00ea ae7800        	ldw	x,#30720
1259  00ed cd0000        	call	_I2C_Send7bitAddress
1262  00f0               L731:
1263                     ; 73     while(!I2C_CheckEvent(I2C_EVENT_MASTER_TRANSMITTER_MODE_SELECTED));
1265  00f0 ae0782        	ldw	x,#1922
1266  00f3 cd0000        	call	_I2C_CheckEvent
1268  00f6 4d            	tnz	a
1269  00f7 27f7          	jreq	L731
1270                     ; 75     I2C_SendData(control_byte);
1272  00f9 7b02          	ld	a,(OFST+2,sp)
1273  00fb cd0000        	call	_I2C_SendData
1276  00fe               L541:
1277                     ; 76     while(!I2C_CheckEvent(I2C_EVENT_MASTER_BYTE_TRANSMITTING));
1279  00fe ae0780        	ldw	x,#1920
1280  0101 cd0000        	call	_I2C_CheckEvent
1282  0104 4d            	tnz	a
1283  0105 27f7          	jreq	L541
1284                     ; 78     I2C_SendData(value);
1286  0107 7b01          	ld	a,(OFST+1,sp)
1287  0109 cd0000        	call	_I2C_SendData
1290  010c               L351:
1291                     ; 79     while(!I2C_CheckEvent(I2C_EVENT_MASTER_BYTE_TRANSMITTED));
1293  010c ae0784        	ldw	x,#1924
1294  010f cd0000        	call	_I2C_CheckEvent
1296  0112 4d            	tnz	a
1297  0113 27f7          	jreq	L351
1298                     ; 81     I2C_GenerateSTOP(ENABLE);  
1300  0115 a601          	ld	a,#1
1301  0117 cd0000        	call	_I2C_GenerateSTOP
1303                     ; 82 }
1306  011a 85            	popw	x
1307  011b 81            	ret
1351                     ; 85 void OLED_gotoxy(unsigned char x_pos, unsigned char y_pos)
1351                     ; 86 {
1352                     	switch	.text
1353  011c               _OLED_gotoxy:
1355  011c 89            	pushw	x
1356       00000000      OFST:	set	0
1359                     ; 87 		 if(y_pos > 3) y_pos = 3;
1361  011d 9f            	ld	a,xl
1362  011e a104          	cp	a,#4
1363  0120 2504          	jrult	L102
1366  0122 a603          	ld	a,#3
1367  0124 6b02          	ld	(OFST+2,sp),a
1368  0126               L102:
1369                     ; 88 		 if(x_pos > 127) x_pos = 127;
1371  0126 7b01          	ld	a,(OFST+1,sp)
1372  0128 a180          	cp	a,#128
1373  012a 2504          	jrult	L302
1376  012c a67f          	ld	a,#127
1377  012e 6b01          	ld	(OFST+1,sp),a
1378  0130               L302:
1379                     ; 89      OLED_write((Set_Page_Start_Address_CMD + y_pos), SSD1306_CMD);
1381  0130 7b02          	ld	a,(OFST+2,sp)
1382  0132 abb0          	add	a,#176
1383  0134 5f            	clrw	x
1384  0135 95            	ld	xh,a
1385  0136 ad9a          	call	_OLED_write
1387                     ; 90      OLED_write(((x_pos & 0x0F) | Set_Lower_Column_Start_Address_CMD), SSD1306_CMD);
1389  0138 7b01          	ld	a,(OFST+1,sp)
1390  013a a40f          	and	a,#15
1391  013c 5f            	clrw	x
1392  013d 95            	ld	xh,a
1393  013e ad92          	call	_OLED_write
1395                     ; 91      OLED_write((((x_pos & 0xF0) >> 0x04) | Set_Higher_Column_Start_Address_CMD), SSD1306_CMD);
1397  0140 7b01          	ld	a,(OFST+1,sp)
1398  0142 4e            	swap	a
1399  0143 a40f          	and	a,#15
1400  0145 aa10          	or	a,#16
1401  0147 5f            	clrw	x
1402  0148 95            	ld	xh,a
1403  0149 ad87          	call	_OLED_write
1405                     ; 92 }
1408  014b 85            	popw	x
1409  014c 81            	ret
1467                     ; 95 void OLED_fill(unsigned char bmp_data)
1467                     ; 96 {
1468                     	switch	.text
1469  014d               _OLED_fill:
1471  014d 88            	push	a
1472  014e 89            	pushw	x
1473       00000002      OFST:	set	2
1476                     ; 97     unsigned char x_pos = 0x00;
1478                     ; 98     unsigned char page = 0x00;
1480                     ; 100     for(page = 0; page < 4; page++)
1482  014f 0f01          	clr	(OFST-1,sp)
1484  0151               L332:
1485                     ; 102         OLED_gotoxy(x_min, page);
1487  0151 7b01          	ld	a,(OFST-1,sp)
1488  0153 5f            	clrw	x
1489  0154 97            	ld	xl,a
1490  0155 adc5          	call	_OLED_gotoxy
1492                     ; 104         I2C_GenerateSTART(ENABLE);
1494  0157 a601          	ld	a,#1
1495  0159 cd0000        	call	_I2C_GenerateSTART
1498  015c               L342:
1499                     ; 105         while(!I2C_CheckEvent(I2C_EVENT_MASTER_MODE_SELECT));
1501  015c ae0301        	ldw	x,#769
1502  015f cd0000        	call	_I2C_CheckEvent
1504  0162 4d            	tnz	a
1505  0163 27f7          	jreq	L342
1506                     ; 107         I2C_Send7bitAddress(SSD1306_I2C_Address, I2C_DIRECTION_TX); 
1508  0165 ae7800        	ldw	x,#30720
1509  0168 cd0000        	call	_I2C_Send7bitAddress
1512  016b               L152:
1513                     ; 108         while(!I2C_CheckEvent(I2C_EVENT_MASTER_TRANSMITTER_MODE_SELECTED));
1515  016b ae0782        	ldw	x,#1922
1516  016e cd0000        	call	_I2C_CheckEvent
1518  0171 4d            	tnz	a
1519  0172 27f7          	jreq	L152
1520                     ; 110         I2C_SendData(SSD1306_DAT);
1522  0174 a660          	ld	a,#96
1523  0176 cd0000        	call	_I2C_SendData
1526  0179               L752:
1527                     ; 111         while(!I2C_CheckEvent(I2C_EVENT_MASTER_BYTE_TRANSMITTING));    
1529  0179 ae0780        	ldw	x,#1920
1530  017c cd0000        	call	_I2C_CheckEvent
1532  017f 4d            	tnz	a
1533  0180 27f7          	jreq	L752
1534                     ; 113         for(x_pos = x_min; x_pos < x_max; x_pos++)
1536  0182 0f02          	clr	(OFST+0,sp)
1538  0184               L362:
1539                     ; 115            I2C_SendData(bmp_data);
1541  0184 7b03          	ld	a,(OFST+1,sp)
1542  0186 cd0000        	call	_I2C_SendData
1545  0189               L372:
1546                     ; 116 		   while(!I2C_CheckEvent(I2C_EVENT_MASTER_BYTE_TRANSMITTED));  
1548  0189 ae0784        	ldw	x,#1924
1549  018c cd0000        	call	_I2C_CheckEvent
1551  018f 4d            	tnz	a
1552  0190 27f7          	jreq	L372
1553                     ; 113         for(x_pos = x_min; x_pos < x_max; x_pos++)
1555  0192 0c02          	inc	(OFST+0,sp)
1559  0194 7b02          	ld	a,(OFST+0,sp)
1560  0196 a180          	cp	a,#128
1561  0198 25ea          	jrult	L362
1562                     ; 119         I2C_GenerateSTOP(ENABLE);  
1564  019a a601          	ld	a,#1
1565  019c cd0000        	call	_I2C_GenerateSTOP
1567                     ; 100     for(page = 0; page < 4; page++)
1569  019f 0c01          	inc	(OFST-1,sp)
1573  01a1 7b01          	ld	a,(OFST-1,sp)
1574  01a3 a104          	cp	a,#4
1575  01a5 25aa          	jrult	L332
1576                     ; 121 }
1579  01a7 5b03          	addw	sp,#3
1580  01a9 81            	ret
1648                     ; 169 void OLED_print_Image(const unsigned char *bmp, unsigned char pixel)
1648                     ; 170 {
1649                     	switch	.text
1650  01aa               _OLED_print_Image:
1652  01aa 89            	pushw	x
1653  01ab 89            	pushw	x
1654       00000002      OFST:	set	2
1657                     ; 171     unsigned char x_pos = 0;
1659                     ; 172     unsigned char page = 0;
1661                     ; 174     if(pixel != OFF)
1663  01ac 0d07          	tnz	(OFST+5,sp)
1664  01ae 2706          	jreq	L133
1665                     ; 176         pixel = 0xFF;
1667  01b0 a6ff          	ld	a,#255
1668  01b2 6b07          	ld	(OFST+5,sp),a
1670  01b4 2002          	jra	L333
1671  01b6               L133:
1672                     ; 180         pixel = 0x00;
1674  01b6 0f07          	clr	(OFST+5,sp)
1675  01b8               L333:
1676                     ; 183     for(page = 0; page < 2; page++)
1678  01b8 0f01          	clr	(OFST-1,sp)
1680  01ba               L533:
1681                     ; 185          OLED_gotoxy(x_min, page);
1683  01ba 7b01          	ld	a,(OFST-1,sp)
1684  01bc 5f            	clrw	x
1685  01bd 97            	ld	xl,a
1686  01be cd011c        	call	_OLED_gotoxy
1688                     ; 187          I2C_GenerateSTART(ENABLE);
1690  01c1 a601          	ld	a,#1
1691  01c3 cd0000        	call	_I2C_GenerateSTART
1694  01c6               L543:
1695                     ; 188          while(!I2C_CheckEvent(I2C_EVENT_MASTER_MODE_SELECT));
1697  01c6 ae0301        	ldw	x,#769
1698  01c9 cd0000        	call	_I2C_CheckEvent
1700  01cc 4d            	tnz	a
1701  01cd 27f7          	jreq	L543
1702                     ; 190          I2C_Send7bitAddress(SSD1306_I2C_Address, I2C_DIRECTION_TX); 
1704  01cf ae7800        	ldw	x,#30720
1705  01d2 cd0000        	call	_I2C_Send7bitAddress
1708  01d5               L353:
1709                     ; 191          while(!I2C_CheckEvent(I2C_EVENT_MASTER_TRANSMITTER_MODE_SELECTED));
1711  01d5 ae0782        	ldw	x,#1922
1712  01d8 cd0000        	call	_I2C_CheckEvent
1714  01db 4d            	tnz	a
1715  01dc 27f7          	jreq	L353
1716                     ; 193          I2C_SendData(SSD1306_DAT);
1718  01de a660          	ld	a,#96
1719  01e0 cd0000        	call	_I2C_SendData
1722  01e3               L163:
1723                     ; 194          while(!I2C_CheckEvent(I2C_EVENT_MASTER_BYTE_TRANSMITTING));    
1725  01e3 ae0780        	ldw	x,#1920
1726  01e6 cd0000        	call	_I2C_CheckEvent
1728  01e9 4d            	tnz	a
1729  01ea 27f7          	jreq	L163
1730                     ; 196          for(x_pos = x_min; x_pos < 16; x_pos++)				 
1732  01ec 0f02          	clr	(OFST+0,sp)
1734  01ee               L563:
1735                     ; 198             I2C_SendData((*bmp++ ^ pixel));
1737  01ee 1e03          	ldw	x,(OFST+1,sp)
1738  01f0 1c0001        	addw	x,#1
1739  01f3 1f03          	ldw	(OFST+1,sp),x
1740  01f5 1d0001        	subw	x,#1
1741  01f8 f6            	ld	a,(x)
1742  01f9 1807          	xor	a,(OFST+5,sp)
1743  01fb cd0000        	call	_I2C_SendData
1746  01fe               L573:
1747                     ; 199             while(!I2C_CheckEvent(I2C_EVENT_MASTER_BYTE_TRANSMITTED));
1749  01fe ae0784        	ldw	x,#1924
1750  0201 cd0000        	call	_I2C_CheckEvent
1752  0204 4d            	tnz	a
1753  0205 27f7          	jreq	L573
1754                     ; 196          for(x_pos = x_min; x_pos < 16; x_pos++)				 
1756  0207 0c02          	inc	(OFST+0,sp)
1760  0209 7b02          	ld	a,(OFST+0,sp)
1761  020b a110          	cp	a,#16
1762  020d 25df          	jrult	L563
1763                     ; 202 		 I2C_GenerateSTOP(ENABLE); 
1765  020f a601          	ld	a,#1
1766  0211 cd0000        	call	_I2C_GenerateSTOP
1768                     ; 183     for(page = 0; page < 2; page++)
1770  0214 0c01          	inc	(OFST-1,sp)
1774  0216 7b01          	ld	a,(OFST-1,sp)
1775  0218 a102          	cp	a,#2
1776  021a 259e          	jrult	L533
1777                     ; 204 }
1780  021c 5b04          	addw	sp,#4
1781  021e 81            	ret
1868                     ; 208 void OLED_print_Image_2page(unsigned char x_start, unsigned char page_start,
1868                     ; 209                       const unsigned char *bmp, unsigned char pixel)
1868                     ; 210 {
1869                     	switch	.text
1870  021f               _OLED_print_Image_2page:
1872  021f 89            	pushw	x
1873  0220 89            	pushw	x
1874       00000002      OFST:	set	2
1877                     ; 211     unsigned char x_pos = 0;
1879                     ; 212     unsigned char page = 0;
1881                     ; 214     if(pixel != OFF)
1883  0221 0d09          	tnz	(OFST+7,sp)
1884  0223 2706          	jreq	L344
1885                     ; 215         pixel = 0xFF;
1887  0225 a6ff          	ld	a,#255
1888  0227 6b09          	ld	(OFST+7,sp),a
1890  0229 2002          	jra	L544
1891  022b               L344:
1892                     ; 217         pixel = 0x00;
1894  022b 0f09          	clr	(OFST+7,sp)
1895  022d               L544:
1896                     ; 219     for(page = 0; page < 2; page++)  // ¨â­¶°ª = 16 pixels
1898  022d 0f01          	clr	(OFST-1,sp)
1900  022f               L744:
1901                     ; 221          OLED_gotoxy(x_start, page_start + page);
1903  022f 7b04          	ld	a,(OFST+2,sp)
1904  0231 1b01          	add	a,(OFST-1,sp)
1905  0233 97            	ld	xl,a
1906  0234 7b03          	ld	a,(OFST+1,sp)
1907  0236 95            	ld	xh,a
1908  0237 cd011c        	call	_OLED_gotoxy
1910                     ; 223          I2C_GenerateSTART(ENABLE);
1912  023a a601          	ld	a,#1
1913  023c cd0000        	call	_I2C_GenerateSTART
1916  023f               L754:
1917                     ; 224          while(!I2C_CheckEvent(I2C_EVENT_MASTER_MODE_SELECT));
1919  023f ae0301        	ldw	x,#769
1920  0242 cd0000        	call	_I2C_CheckEvent
1922  0245 4d            	tnz	a
1923  0246 27f7          	jreq	L754
1924                     ; 226          I2C_Send7bitAddress(SSD1306_I2C_Address, I2C_DIRECTION_TX); 
1926  0248 ae7800        	ldw	x,#30720
1927  024b cd0000        	call	_I2C_Send7bitAddress
1930  024e               L564:
1931                     ; 227          while(!I2C_CheckEvent(I2C_EVENT_MASTER_TRANSMITTER_MODE_SELECTED));
1933  024e ae0782        	ldw	x,#1922
1934  0251 cd0000        	call	_I2C_CheckEvent
1936  0254 4d            	tnz	a
1937  0255 27f7          	jreq	L564
1938                     ; 229          I2C_SendData(SSD1306_DAT);
1940  0257 a660          	ld	a,#96
1941  0259 cd0000        	call	_I2C_SendData
1944  025c               L374:
1945                     ; 230          while(!I2C_CheckEvent(I2C_EVENT_MASTER_BYTE_TRANSMITTING));    
1947  025c ae0780        	ldw	x,#1920
1948  025f cd0000        	call	_I2C_CheckEvent
1950  0262 4d            	tnz	a
1951  0263 27f7          	jreq	L374
1952                     ; 232          for(x_pos = 0; x_pos < 16; x_pos++)
1954  0265 0f02          	clr	(OFST+0,sp)
1956  0267               L774:
1957                     ; 234             I2C_SendData((*bmp++ ^ pixel));
1959  0267 1e07          	ldw	x,(OFST+5,sp)
1960  0269 1c0001        	addw	x,#1
1961  026c 1f07          	ldw	(OFST+5,sp),x
1962  026e 1d0001        	subw	x,#1
1963  0271 f6            	ld	a,(x)
1964  0272 1809          	xor	a,(OFST+7,sp)
1965  0274 cd0000        	call	_I2C_SendData
1968  0277               L705:
1969                     ; 235             while(!I2C_CheckEvent(I2C_EVENT_MASTER_BYTE_TRANSMITTED));
1971  0277 ae0784        	ldw	x,#1924
1972  027a cd0000        	call	_I2C_CheckEvent
1974  027d 4d            	tnz	a
1975  027e 27f7          	jreq	L705
1976                     ; 232          for(x_pos = 0; x_pos < 16; x_pos++)
1978  0280 0c02          	inc	(OFST+0,sp)
1982  0282 7b02          	ld	a,(OFST+0,sp)
1983  0284 a110          	cp	a,#16
1984  0286 25df          	jrult	L774
1985                     ; 238 		 I2C_GenerateSTOP(ENABLE); 
1987  0288 a601          	ld	a,#1
1988  028a cd0000        	call	_I2C_GenerateSTOP
1990                     ; 219     for(page = 0; page < 2; page++)  // ¨â­¶°ª = 16 pixels
1992  028d 0c01          	inc	(OFST-1,sp)
1996  028f 7b01          	ld	a,(OFST-1,sp)
1997  0291 a102          	cp	a,#2
1998  0293 259a          	jrult	L744
1999                     ; 240 }
2002  0295 5b04          	addw	sp,#4
2003  0297 81            	ret
2090                     ; 241 void OLED_print_Image_4page(unsigned char x_start, unsigned char page_start,
2090                     ; 242                       const unsigned char *bmp, unsigned char pixel)
2090                     ; 243 {
2091                     	switch	.text
2092  0298               _OLED_print_Image_4page:
2094  0298 89            	pushw	x
2095  0299 89            	pushw	x
2096       00000002      OFST:	set	2
2099                     ; 244     unsigned char x_pos = 0;
2101                     ; 245     unsigned char page = 0;
2103                     ; 247     if(pixel != OFF)
2105  029a 0d09          	tnz	(OFST+7,sp)
2106  029c 2706          	jreq	L555
2107                     ; 248         pixel = 0xFF;
2109  029e a6ff          	ld	a,#255
2110  02a0 6b09          	ld	(OFST+7,sp),a
2112  02a2 2002          	jra	L755
2113  02a4               L555:
2114                     ; 250         pixel = 0x00;
2116  02a4 0f09          	clr	(OFST+7,sp)
2117  02a6               L755:
2118                     ; 252     for(page = 0; page < 4; page++)  // ¥|­¶ = 32 pixels
2120  02a6 0f01          	clr	(OFST-1,sp)
2122  02a8               L165:
2123                     ; 254          OLED_gotoxy(x_start, page_start + page);
2125  02a8 7b04          	ld	a,(OFST+2,sp)
2126  02aa 1b01          	add	a,(OFST-1,sp)
2127  02ac 97            	ld	xl,a
2128  02ad 7b03          	ld	a,(OFST+1,sp)
2129  02af 95            	ld	xh,a
2130  02b0 cd011c        	call	_OLED_gotoxy
2132                     ; 256          I2C_GenerateSTART(ENABLE);
2134  02b3 a601          	ld	a,#1
2135  02b5 cd0000        	call	_I2C_GenerateSTART
2138  02b8               L175:
2139                     ; 257          while(!I2C_CheckEvent(I2C_EVENT_MASTER_MODE_SELECT));
2141  02b8 ae0301        	ldw	x,#769
2142  02bb cd0000        	call	_I2C_CheckEvent
2144  02be 4d            	tnz	a
2145  02bf 27f7          	jreq	L175
2146                     ; 259          I2C_Send7bitAddress(SSD1306_I2C_Address, I2C_DIRECTION_TX); 
2148  02c1 ae7800        	ldw	x,#30720
2149  02c4 cd0000        	call	_I2C_Send7bitAddress
2152  02c7               L775:
2153                     ; 260          while(!I2C_CheckEvent(I2C_EVENT_MASTER_TRANSMITTER_MODE_SELECTED));
2155  02c7 ae0782        	ldw	x,#1922
2156  02ca cd0000        	call	_I2C_CheckEvent
2158  02cd 4d            	tnz	a
2159  02ce 27f7          	jreq	L775
2160                     ; 262          I2C_SendData(SSD1306_DAT);
2162  02d0 a660          	ld	a,#96
2163  02d2 cd0000        	call	_I2C_SendData
2166  02d5               L506:
2167                     ; 263          while(!I2C_CheckEvent(I2C_EVENT_MASTER_BYTE_TRANSMITTING));    
2169  02d5 ae0780        	ldw	x,#1920
2170  02d8 cd0000        	call	_I2C_CheckEvent
2172  02db 4d            	tnz	a
2173  02dc 27f7          	jreq	L506
2174                     ; 265          for(x_pos = 0; x_pos < 32; x_pos++)
2176  02de 0f02          	clr	(OFST+0,sp)
2178  02e0               L116:
2179                     ; 267             I2C_SendData((*bmp++ ^ pixel));
2181  02e0 1e07          	ldw	x,(OFST+5,sp)
2182  02e2 1c0001        	addw	x,#1
2183  02e5 1f07          	ldw	(OFST+5,sp),x
2184  02e7 1d0001        	subw	x,#1
2185  02ea f6            	ld	a,(x)
2186  02eb 1809          	xor	a,(OFST+7,sp)
2187  02ed cd0000        	call	_I2C_SendData
2190  02f0               L126:
2191                     ; 268             while(!I2C_CheckEvent(I2C_EVENT_MASTER_BYTE_TRANSMITTED));
2193  02f0 ae0784        	ldw	x,#1924
2194  02f3 cd0000        	call	_I2C_CheckEvent
2196  02f6 4d            	tnz	a
2197  02f7 27f7          	jreq	L126
2198                     ; 265          for(x_pos = 0; x_pos < 32; x_pos++)
2200  02f9 0c02          	inc	(OFST+0,sp)
2204  02fb 7b02          	ld	a,(OFST+0,sp)
2205  02fd a120          	cp	a,#32
2206  02ff 25df          	jrult	L116
2207                     ; 271 		 I2C_GenerateSTOP(ENABLE); 
2209  0301 a601          	ld	a,#1
2210  0303 cd0000        	call	_I2C_GenerateSTOP
2212                     ; 252     for(page = 0; page < 4; page++)  // ¥|­¶ = 32 pixels
2214  0306 0c01          	inc	(OFST-1,sp)
2218  0308 7b01          	ld	a,(OFST-1,sp)
2219  030a a104          	cp	a,#4
2220  030c 259a          	jrult	L165
2221                     ; 273 }
2224  030e 5b04          	addw	sp,#4
2225  0310 81            	ret
2249                     ; 275 void OLED_clear_screen(void)
2249                     ; 276 {
2250                     	switch	.text
2251  0311               _OLED_clear_screen:
2255                     ; 277     OLED_fill(0x00);
2257  0311 4f            	clr	a
2258  0312 cd014d        	call	_OLED_fill
2260                     ; 278 }
2263  0315 81            	ret
2298                     ; 280 void OLED_clear_buffer(void)
2298                     ; 281 {
2299                     	switch	.text
2300  0316               _OLED_clear_buffer:
2302  0316 89            	pushw	x
2303       00000002      OFST:	set	2
2306                     ; 282      unsigned int s = 0x0000;
2308                     ; 284      for(s = 0; s < buffer_size; s++)
2310  0317 5f            	clrw	x
2311  0318 1f01          	ldw	(OFST-1,sp),x
2313  031a               L356:
2314                     ; 286           buffer[s] = 0x00;
2316  031a 1e01          	ldw	x,(OFST-1,sp)
2317  031c 6f00          	clr	(_buffer,x)
2318                     ; 284      for(s = 0; s < buffer_size; s++)
2320  031e 1e01          	ldw	x,(OFST-1,sp)
2321  0320 1c0001        	addw	x,#1
2322  0323 1f01          	ldw	(OFST-1,sp),x
2326  0325 1e01          	ldw	x,(OFST-1,sp)
2327  0327 a30080        	cpw	x,#128
2328  032a 25ee          	jrult	L356
2329                     ; 288 }
2332  032c 85            	popw	x
2333  032d 81            	ret
2406                     ; 290 void OLED_print_char(unsigned char x_pos, unsigned char y_pos, unsigned char ch)
2406                     ; 291 {
2407                     	switch	.text
2408  032e               _OLED_print_char:
2410  032e 89            	pushw	x
2411  032f 89            	pushw	x
2412       00000002      OFST:	set	2
2415                     ; 292   unsigned char s = 0x00;
2417                     ; 293   unsigned char chr = 0x00;
2419                     ; 295   chr = (ch - 0x20);
2421  0330 7b07          	ld	a,(OFST+5,sp)
2422  0332 a020          	sub	a,#32
2423  0334 6b01          	ld	(OFST-1,sp),a
2425                     ; 297   if(x_pos > (x_max - 0x06))
2427  0336 9e            	ld	a,xh
2428  0337 a17b          	cp	a,#123
2429  0339 250c          	jrult	L717
2430                     ; 299     x_pos = 0x00;
2432  033b 0f03          	clr	(OFST+1,sp)
2433                     ; 300     y_pos++;
2435  033d 0c04          	inc	(OFST+2,sp)
2436                     ; 301 		if(y_pos > 3) y_pos = 0;
2438  033f 7b04          	ld	a,(OFST+2,sp)
2439  0341 a104          	cp	a,#4
2440  0343 2502          	jrult	L717
2443  0345 0f04          	clr	(OFST+2,sp)
2444  0347               L717:
2445                     ; 303   OLED_gotoxy(x_pos, y_pos);
2447  0347 7b04          	ld	a,(OFST+2,sp)
2448  0349 97            	ld	xl,a
2449  034a 7b03          	ld	a,(OFST+1,sp)
2450  034c 95            	ld	xh,a
2451  034d cd011c        	call	_OLED_gotoxy
2453                     ; 305   for(s = 0x00; s < 0x06; s++)
2455  0350 0f02          	clr	(OFST+0,sp)
2457  0352               L327:
2458                     ; 307     OLED_write(font_regular[chr][s], SSD1306_DAT);
2460  0352 7b01          	ld	a,(OFST-1,sp)
2461  0354 97            	ld	xl,a
2462  0355 a606          	ld	a,#6
2463  0357 42            	mul	x,a
2464  0358 01            	rrwa	x,a
2465  0359 1b02          	add	a,(OFST+0,sp)
2466  035b 2401          	jrnc	L63
2467  035d 5c            	incw	x
2468  035e               L63:
2469  035e 02            	rlwa	x,a
2470  035f d60000        	ld	a,(L3_font_regular,x)
2471  0362 ae0060        	ldw	x,#96
2472  0365 95            	ld	xh,a
2473  0366 cd00d2        	call	_OLED_write
2475                     ; 305   for(s = 0x00; s < 0x06; s++)
2477  0369 0c02          	inc	(OFST+0,sp)
2481  036b 7b02          	ld	a,(OFST+0,sp)
2482  036d a106          	cp	a,#6
2483  036f 25e1          	jrult	L327
2484                     ; 309 }
2487  0371 5b04          	addw	sp,#4
2488  0373 81            	ret
2542                     ; 312 void OLED_print_string(unsigned char x_pos, unsigned char y_pos, char *ch)
2542                     ; 313 {
2543                     	switch	.text
2544  0374               _OLED_print_string:
2546  0374 89            	pushw	x
2547       00000000      OFST:	set	0
2550  0375               L757:
2551                     ; 316     OLED_print_char(x_pos, y_pos, *ch++);
2553  0375 1e05          	ldw	x,(OFST+5,sp)
2554  0377 1c0001        	addw	x,#1
2555  037a 1f05          	ldw	(OFST+5,sp),x
2556  037c 1d0001        	subw	x,#1
2557  037f f6            	ld	a,(x)
2558  0380 88            	push	a
2559  0381 7b03          	ld	a,(OFST+3,sp)
2560  0383 97            	ld	xl,a
2561  0384 7b02          	ld	a,(OFST+2,sp)
2562  0386 95            	ld	xh,a
2563  0387 ada5          	call	_OLED_print_char
2565  0389 84            	pop	a
2566                     ; 317     x_pos += 0x06;
2568  038a 7b01          	ld	a,(OFST+1,sp)
2569  038c ab06          	add	a,#6
2570  038e 6b01          	ld	(OFST+1,sp),a
2571                     ; 318 		if(x_pos > (x_max - 6) && (*ch != '\0'))
2573  0390 7b01          	ld	a,(OFST+1,sp)
2574  0392 a17b          	cp	a,#123
2575  0394 2511          	jrult	L167
2577  0396 1e05          	ldw	x,(OFST+5,sp)
2578  0398 7d            	tnz	(x)
2579  0399 270c          	jreq	L167
2580                     ; 320       x_pos = 0;
2582  039b 0f01          	clr	(OFST+1,sp)
2583                     ; 321       y_pos++;
2585  039d 0c02          	inc	(OFST+2,sp)
2586                     ; 322       if(y_pos > 3) y_pos = 0;  // ´`ÀôÅã¥Ü
2588  039f 7b02          	ld	a,(OFST+2,sp)
2589  03a1 a104          	cp	a,#4
2590  03a3 2502          	jrult	L167
2593  03a5 0f02          	clr	(OFST+2,sp)
2594  03a7               L167:
2595                     ; 324   }while((*ch >= 0x20) && (*ch <= 0x7F) && (*ch != '\n'));
2597  03a7 1e05          	ldw	x,(OFST+5,sp)
2598  03a9 f6            	ld	a,(x)
2599  03aa a120          	cp	a,#32
2600  03ac 250e          	jrult	L177
2602  03ae 1e05          	ldw	x,(OFST+5,sp)
2603  03b0 f6            	ld	a,(x)
2604  03b1 a180          	cp	a,#128
2605  03b3 2407          	jruge	L177
2607  03b5 1e05          	ldw	x,(OFST+5,sp)
2608  03b7 f6            	ld	a,(x)
2609  03b8 a10a          	cp	a,#10
2610  03ba 26b9          	jrne	L757
2611  03bc               L177:
2612                     ; 325 }
2615  03bc 85            	popw	x
2616  03bd 81            	ret
2619                     	switch	.const
2620  030c               L577_ch:
2621  030c 20            	dc.b	32
2622  030d 20            	dc.b	32
2623  030e 20            	dc.b	32
2624  030f 20            	dc.b	32
2625  0310 20            	dc.b	32
2626  0311 20            	dc.b	32
2627  0312 00            	dc.b	0
2717                     	switch	.const
2718  0313               L44:
2719  0313 0000000a      	dc.l	10
2720                     ; 328 void OLED_print_int(unsigned char x_pos, unsigned char y_pos, signed long value,unsigned char size)
2720                     ; 329 {
2721                     	switch	.text
2722  03be               _OLED_print_int:
2724  03be 89            	pushw	x
2725  03bf 520d          	subw	sp,#13
2726       0000000d      OFST:	set	13
2729                     ; 331     char ch[7] = {0x20, 0x20, 0x20, 0x20, 0x20, 0x20, '\0'}; // ²¾°£ \n
2731  03c1 96            	ldw	x,sp
2732  03c2 1c0003        	addw	x,#OFST-10
2733  03c5 90ae030c      	ldw	y,#L577_ch
2734  03c9 a607          	ld	a,#7
2735  03cb cd0000        	call	c_xymov
2737                     ; 332     char *p = &ch[5];
2739  03ce 96            	ldw	x,sp
2740  03cf 1c0008        	addw	x,#OFST-5
2741  03d2 1f01          	ldw	(OFST-12,sp),x
2743                     ; 335     if(value < 0) {
2745  03d4 9c            	rvf
2746  03d5 9c            	rvf
2747  03d6 0d12          	tnz	(OFST+5,sp)
2748  03d8 2e17          	jrsge	L5401
2749                     ; 336         ch[0] = 0x2D;
2751  03da a62d          	ld	a,#45
2752  03dc 6b03          	ld	(OFST-10,sp),a
2754                     ; 337         uval = -value;
2756  03de 96            	ldw	x,sp
2757  03df 1c0012        	addw	x,#OFST+5
2758  03e2 cd0000        	call	c_ltor
2760  03e5 cd0000        	call	c_lneg
2762  03e8 96            	ldw	x,sp
2763  03e9 1c000a        	addw	x,#OFST-3
2764  03ec cd0000        	call	c_rtol
2768  03ef 200c          	jra	L1501
2769  03f1               L5401:
2770                     ; 339         ch[0] = 0x20;
2772  03f1 a620          	ld	a,#32
2773  03f3 6b03          	ld	(OFST-10,sp),a
2775                     ; 340         uval = value;
2777  03f5 1e14          	ldw	x,(OFST+7,sp)
2778  03f7 1f0c          	ldw	(OFST-1,sp),x
2779  03f9 1e12          	ldw	x,(OFST+5,sp)
2780  03fb 1f0a          	ldw	(OFST-3,sp),x
2782  03fd               L1501:
2783                     ; 345         *p-- = (uval % 10) + 0x30;
2785  03fd 96            	ldw	x,sp
2786  03fe 1c000a        	addw	x,#OFST-3
2787  0401 cd0000        	call	c_ltor
2789  0404 ae0313        	ldw	x,#L44
2790  0407 cd0000        	call	c_lumd
2792  040a a630          	ld	a,#48
2793  040c cd0000        	call	c_ladc
2795  040f 1e01          	ldw	x,(OFST-12,sp)
2796  0411 1d0001        	subw	x,#1
2797  0414 1f01          	ldw	(OFST-12,sp),x
2798  0416 1c0001        	addw	x,#1
2800  0419 b603          	ld	a,c_lreg+3
2801  041b f7            	ld	(x),a
2802                     ; 346         uval /= 10;
2804  041c 96            	ldw	x,sp
2805  041d 1c000a        	addw	x,#OFST-3
2806  0420 cd0000        	call	c_ltor
2808  0423 ae0313        	ldw	x,#L44
2809  0426 cd0000        	call	c_ludv
2811  0429 96            	ldw	x,sp
2812  042a 1c000a        	addw	x,#OFST-3
2813  042d cd0000        	call	c_rtol
2816                     ; 347     } while(uval > 0 && p >= &ch[1]);
2818  0430 96            	ldw	x,sp
2819  0431 1c000a        	addw	x,#OFST-3
2820  0434 cd0000        	call	c_lzmp
2822  0437 270c          	jreq	L7501
2824  0439 96            	ldw	x,sp
2825  043a 1c0004        	addw	x,#OFST-9
2826  043d bf00          	ldw	c_x,x
2827  043f 1e01          	ldw	x,(OFST-12,sp)
2828  0441 b300          	cpw	x,c_x
2829  0443 24b8          	jruge	L1501
2830  0445               L7501:
2831                     ; 348     if (size == 1 )
2833  0445 7b16          	ld	a,(OFST+9,sp)
2834  0447 a101          	cp	a,#1
2835  0449 2611          	jrne	L1601
2836                     ; 349     OLED_print_string(x_pos, y_pos, ch); //¨Ï¥Î¤@­¶
2838  044b 96            	ldw	x,sp
2839  044c 1c0003        	addw	x,#OFST-10
2840  044f 89            	pushw	x
2841  0450 7b11          	ld	a,(OFST+4,sp)
2842  0452 97            	ld	xl,a
2843  0453 7b10          	ld	a,(OFST+3,sp)
2844  0455 95            	ld	xh,a
2845  0456 cd0374        	call	_OLED_print_string
2847  0459 85            	popw	x
2849  045a 2015          	jra	L3601
2850  045c               L1601:
2851                     ; 350 		else if (size == 2 )
2853  045c 7b16          	ld	a,(OFST+9,sp)
2854  045e a102          	cp	a,#2
2855  0460 260f          	jrne	L3601
2856                     ; 351 		OLED_print_string_2x(x_pos, y_pos, ch);//¨Ï¥Î¤G­¶
2858  0462 96            	ldw	x,sp
2859  0463 1c0003        	addw	x,#OFST-10
2860  0466 89            	pushw	x
2861  0467 7b11          	ld	a,(OFST+4,sp)
2862  0469 97            	ld	xl,a
2863  046a 7b10          	ld	a,(OFST+3,sp)
2864  046c 95            	ld	xh,a
2865  046d cd0612        	call	_OLED_print_string_2x
2867  0470 85            	popw	x
2868  0471               L3601:
2869                     ; 352 }
2872  0471 5b0f          	addw	sp,#15
2873  0473 81            	ret
2955                     ; 354 void Draw_Pixel(unsigned char x_pos, unsigned char y_pos, unsigned char colour)
2955                     ; 355 {
2956                     	switch	.text
2957  0474               _Draw_Pixel:
2959  0474 89            	pushw	x
2960  0475 5203          	subw	sp,#3
2961       00000003      OFST:	set	3
2964                     ; 356     unsigned char value = 0x00;
2966                     ; 357     unsigned char page = 0x00;
2968                     ; 358     unsigned char bit_pos = 0x00;
2970                     ; 361     page = (y_pos >> 3);  // µ¥¦P©ó y_pos / 8
2972  0477 9f            	ld	a,xl
2973  0478 44            	srl	a
2974  0479 44            	srl	a
2975  047a 44            	srl	a
2976  047b 6b02          	ld	(OFST-1,sp),a
2978                     ; 362     bit_pos = (y_pos & 0x07);  // µ¥¦P©ó y_pos % 8
2980  047d 7b05          	ld	a,(OFST+2,sp)
2981  047f a407          	and	a,#7
2982  0481 6b01          	ld	(OFST-2,sp),a
2984                     ; 365     if(x_pos >= x_max || y_pos >= 32) {  // 32 ¬OÁ`°ª«×
2986  0483 7b04          	ld	a,(OFST+1,sp)
2987  0485 a180          	cp	a,#128
2988  0487 2406          	jruge	L3311
2990  0489 7b05          	ld	a,(OFST+2,sp)
2991  048b a120          	cp	a,#32
2992  048d 2502          	jrult	L1311
2993  048f               L3311:
2994                     ; 366         return;
2996  048f 205d          	jra	L46
2997  0491               L1311:
2998                     ; 369     value = buffer[(page * x_max) + x_pos];
3000  0491 7b02          	ld	a,(OFST-1,sp)
3001  0493 97            	ld	xl,a
3002  0494 a680          	ld	a,#128
3003  0496 42            	mul	x,a
3004  0497 01            	rrwa	x,a
3005  0498 1b04          	add	a,(OFST+1,sp)
3006  049a 2401          	jrnc	L05
3007  049c 5c            	incw	x
3008  049d               L05:
3009  049d 02            	rlwa	x,a
3010  049e e600          	ld	a,(_buffer,x)
3011  04a0 6b03          	ld	(OFST+0,sp),a
3013                     ; 371     if(colour != 0)  // ª½±µ§PÂ_ colour
3015  04a2 0d08          	tnz	(OFST+5,sp)
3016  04a4 2713          	jreq	L5311
3017                     ; 373         value |= (1 << bit_pos);
3019  04a6 7b01          	ld	a,(OFST-2,sp)
3020  04a8 5f            	clrw	x
3021  04a9 97            	ld	xl,a
3022  04aa a601          	ld	a,#1
3023  04ac 5d            	tnzw	x
3024  04ad 2704          	jreq	L25
3025  04af               L45:
3026  04af 48            	sll	a
3027  04b0 5a            	decw	x
3028  04b1 26fc          	jrne	L45
3029  04b3               L25:
3030  04b3 1a03          	or	a,(OFST+0,sp)
3031  04b5 6b03          	ld	(OFST+0,sp),a
3034  04b7 2012          	jra	L7311
3035  04b9               L5311:
3036                     ; 377         value &= (~(1 << bit_pos));
3038  04b9 7b01          	ld	a,(OFST-2,sp)
3039  04bb 5f            	clrw	x
3040  04bc 97            	ld	xl,a
3041  04bd a601          	ld	a,#1
3042  04bf 5d            	tnzw	x
3043  04c0 2704          	jreq	L65
3044  04c2               L06:
3045  04c2 48            	sll	a
3046  04c3 5a            	decw	x
3047  04c4 26fc          	jrne	L06
3048  04c6               L65:
3049  04c6 43            	cpl	a
3050  04c7 1403          	and	a,(OFST+0,sp)
3051  04c9 6b03          	ld	(OFST+0,sp),a
3053  04cb               L7311:
3054                     ; 380     buffer[(page * x_max) + x_pos] = value;
3056  04cb 7b02          	ld	a,(OFST-1,sp)
3057  04cd 97            	ld	xl,a
3058  04ce a680          	ld	a,#128
3059  04d0 42            	mul	x,a
3060  04d1 01            	rrwa	x,a
3061  04d2 1b04          	add	a,(OFST+1,sp)
3062  04d4 2401          	jrnc	L26
3063  04d6 5c            	incw	x
3064  04d7               L26:
3065  04d7 02            	rlwa	x,a
3066  04d8 7b03          	ld	a,(OFST+0,sp)
3067  04da e700          	ld	(_buffer,x),a
3068                     ; 381     OLED_gotoxy(x_pos, page);
3070  04dc 7b02          	ld	a,(OFST-1,sp)
3071  04de 97            	ld	xl,a
3072  04df 7b04          	ld	a,(OFST+1,sp)
3073  04e1 95            	ld	xh,a
3074  04e2 cd011c        	call	_OLED_gotoxy
3076                     ; 382     OLED_write(value, SSD1306_DAT);
3078  04e5 7b03          	ld	a,(OFST+0,sp)
3079  04e7 ae0060        	ldw	x,#96
3080  04ea 95            	ld	xh,a
3081  04eb cd00d2        	call	_OLED_write
3083                     ; 383 }
3084  04ee               L46:
3087  04ee 5b05          	addw	sp,#5
3088  04f0 81            	ret
3215                     ; 385 void OLED_print_2xChar(unsigned char x_pos, unsigned char y_pos, unsigned char ch)
3215                     ; 386 {
3216                     	switch	.text
3217  04f1               _OLED_print_2xChar:
3219  04f1 89            	pushw	x
3220  04f2 520a          	subw	sp,#10
3221       0000000a      OFST:	set	10
3224                     ; 388     unsigned char s = 0x00;
3226                     ; 389     unsigned char chr = 0x00;
3228                     ; 390     unsigned char temp = 0x00;
3230                     ; 391     unsigned char expanded1 = 0x00, expanded2 = 0x00;
3234                     ; 392     unsigned char expanded3 = 0x00, expanded4 = 0x00;
3238                     ; 393     unsigned char i = 0x00;
3240                     ; 395     chr = (ch - 0x20);
3242  04f4 7b0f          	ld	a,(OFST+5,sp)
3243  04f6 a020          	sub	a,#32
3244  04f8 6b03          	ld	(OFST-7,sp),a
3246                     ; 398     if(x_pos > (x_max - 12))
3248  04fa 9e            	ld	a,xh
3249  04fb a175          	cp	a,#117
3250  04fd 250e          	jrult	L7221
3251                     ; 400         x_pos = 0;
3253  04ff 0f0b          	clr	(OFST+1,sp)
3254                     ; 401         y_pos += 2;  // ²¾°Ê¨â­¶
3256  0501 0c0c          	inc	(OFST+2,sp)
3257  0503 0c0c          	inc	(OFST+2,sp)
3258                     ; 402         if(y_pos > 1) y_pos = 0;  // ³Ì¦hÅã¥Ü2¦æ°ª¦rÅé
3260  0505 7b0c          	ld	a,(OFST+2,sp)
3261  0507 a102          	cp	a,#2
3262  0509 2502          	jrult	L7221
3265  050b 0f0c          	clr	(OFST+2,sp)
3266  050d               L7221:
3267                     ; 405     for(s = 0; s < 6; s++)
3269  050d 0f09          	clr	(OFST-1,sp)
3271  050f               L3321:
3272                     ; 407         temp = font_regular[chr][s];
3274  050f 7b03          	ld	a,(OFST-7,sp)
3275  0511 97            	ld	xl,a
3276  0512 a606          	ld	a,#6
3277  0514 42            	mul	x,a
3278  0515 01            	rrwa	x,a
3279  0516 1b09          	add	a,(OFST-1,sp)
3280  0518 2401          	jrnc	L07
3281  051a 5c            	incw	x
3282  051b               L07:
3283  051b 02            	rlwa	x,a
3284  051c d60000        	ld	a,(L3_font_regular,x)
3285  051f 6b08          	ld	(OFST-2,sp),a
3287                     ; 408         expanded1 = 0x00;
3289  0521 0f04          	clr	(OFST-6,sp)
3291                     ; 409         expanded2 = 0x00;
3293  0523 0f05          	clr	(OFST-5,sp)
3295                     ; 410         expanded3 = 0x00;
3297  0525 0f06          	clr	(OFST-4,sp)
3299                     ; 411         expanded4 = 0x00;
3301  0527 0f07          	clr	(OFST-3,sp)
3303                     ; 414         for(i = 0; i < 4; i++)  // ¥u³B²z«e4¦ì¥Î©ó¤W¥b³¡¤À
3305  0529 0f0a          	clr	(OFST+0,sp)
3307  052b               L1421:
3308                     ; 416             if(temp & (1 << i))
3310  052b 7b08          	ld	a,(OFST-2,sp)
3311  052d 5f            	clrw	x
3312  052e 97            	ld	xl,a
3313  052f 1f01          	ldw	(OFST-9,sp),x
3315  0531 ae0001        	ldw	x,#1
3316  0534 7b0a          	ld	a,(OFST+0,sp)
3317  0536 4d            	tnz	a
3318  0537 2704          	jreq	L27
3319  0539               L47:
3320  0539 58            	sllw	x
3321  053a 4a            	dec	a
3322  053b 26fc          	jrne	L47
3323  053d               L27:
3324  053d 01            	rrwa	x,a
3325  053e 1402          	and	a,(OFST-8,sp)
3326  0540 01            	rrwa	x,a
3327  0541 1401          	and	a,(OFST-9,sp)
3328  0543 01            	rrwa	x,a
3329  0544 a30000        	cpw	x,#0
3330  0547 2724          	jreq	L7421
3331                     ; 418                 expanded1 |= (0x03 << (i * 2));
3333  0549 7b0a          	ld	a,(OFST+0,sp)
3334  054b 48            	sll	a
3335  054c 5f            	clrw	x
3336  054d 97            	ld	xl,a
3337  054e a603          	ld	a,#3
3338  0550 5d            	tnzw	x
3339  0551 2704          	jreq	L67
3340  0553               L001:
3341  0553 48            	sll	a
3342  0554 5a            	decw	x
3343  0555 26fc          	jrne	L001
3344  0557               L67:
3345  0557 1a04          	or	a,(OFST-6,sp)
3346  0559 6b04          	ld	(OFST-6,sp),a
3348                     ; 419                 expanded2 |= (0x03 << (i * 2));
3350  055b 7b0a          	ld	a,(OFST+0,sp)
3351  055d 48            	sll	a
3352  055e 5f            	clrw	x
3353  055f 97            	ld	xl,a
3354  0560 a603          	ld	a,#3
3355  0562 5d            	tnzw	x
3356  0563 2704          	jreq	L201
3357  0565               L401:
3358  0565 48            	sll	a
3359  0566 5a            	decw	x
3360  0567 26fc          	jrne	L401
3361  0569               L201:
3362  0569 1a05          	or	a,(OFST-5,sp)
3363  056b 6b05          	ld	(OFST-5,sp),a
3365  056d               L7421:
3366                     ; 414         for(i = 0; i < 4; i++)  // ¥u³B²z«e4¦ì¥Î©ó¤W¥b³¡¤À
3368  056d 0c0a          	inc	(OFST+0,sp)
3372  056f 7b0a          	ld	a,(OFST+0,sp)
3373  0571 a104          	cp	a,#4
3374  0573 25b6          	jrult	L1421
3375                     ; 423         for(i = 4; i < 8; i++)  // ³B²z«á4¦ì¥Î©ó¤U¥b³¡¤À
3377  0575 a604          	ld	a,#4
3378  0577 6b0a          	ld	(OFST+0,sp),a
3380  0579               L1521:
3381                     ; 425             if(temp & (1 << i))
3383  0579 7b08          	ld	a,(OFST-2,sp)
3384  057b 5f            	clrw	x
3385  057c 97            	ld	xl,a
3386  057d 1f01          	ldw	(OFST-9,sp),x
3388  057f ae0001        	ldw	x,#1
3389  0582 7b0a          	ld	a,(OFST+0,sp)
3390  0584 4d            	tnz	a
3391  0585 2704          	jreq	L601
3392  0587               L011:
3393  0587 58            	sllw	x
3394  0588 4a            	dec	a
3395  0589 26fc          	jrne	L011
3396  058b               L601:
3397  058b 01            	rrwa	x,a
3398  058c 1402          	and	a,(OFST-8,sp)
3399  058e 01            	rrwa	x,a
3400  058f 1401          	and	a,(OFST-9,sp)
3401  0591 01            	rrwa	x,a
3402  0592 a30000        	cpw	x,#0
3403  0595 2728          	jreq	L7521
3404                     ; 427                 expanded3 |= (0x03 << ((i - 4) * 2));
3406  0597 7b0a          	ld	a,(OFST+0,sp)
3407  0599 48            	sll	a
3408  059a a008          	sub	a,#8
3409  059c 5f            	clrw	x
3410  059d 97            	ld	xl,a
3411  059e a603          	ld	a,#3
3412  05a0 5d            	tnzw	x
3413  05a1 2704          	jreq	L211
3414  05a3               L411:
3415  05a3 48            	sll	a
3416  05a4 5a            	decw	x
3417  05a5 26fc          	jrne	L411
3418  05a7               L211:
3419  05a7 1a06          	or	a,(OFST-4,sp)
3420  05a9 6b06          	ld	(OFST-4,sp),a
3422                     ; 428                 expanded4 |= (0x03 << ((i - 4) * 2));
3424  05ab 7b0a          	ld	a,(OFST+0,sp)
3425  05ad 48            	sll	a
3426  05ae a008          	sub	a,#8
3427  05b0 5f            	clrw	x
3428  05b1 97            	ld	xl,a
3429  05b2 a603          	ld	a,#3
3430  05b4 5d            	tnzw	x
3431  05b5 2704          	jreq	L611
3432  05b7               L021:
3433  05b7 48            	sll	a
3434  05b8 5a            	decw	x
3435  05b9 26fc          	jrne	L021
3436  05bb               L611:
3437  05bb 1a07          	or	a,(OFST-3,sp)
3438  05bd 6b07          	ld	(OFST-3,sp),a
3440  05bf               L7521:
3441                     ; 423         for(i = 4; i < 8; i++)  // ³B²z«á4¦ì¥Î©ó¤U¥b³¡¤À
3443  05bf 0c0a          	inc	(OFST+0,sp)
3447  05c1 7b0a          	ld	a,(OFST+0,sp)
3448  05c3 a108          	cp	a,#8
3449  05c5 25b2          	jrult	L1521
3450                     ; 433         OLED_gotoxy(x_pos + (s * 2), y_pos);
3452  05c7 7b0c          	ld	a,(OFST+2,sp)
3453  05c9 97            	ld	xl,a
3454  05ca 7b09          	ld	a,(OFST-1,sp)
3455  05cc 48            	sll	a
3456  05cd 1b0b          	add	a,(OFST+1,sp)
3457  05cf 95            	ld	xh,a
3458  05d0 cd011c        	call	_OLED_gotoxy
3460                     ; 434         OLED_write(expanded1, SSD1306_DAT);
3462  05d3 7b04          	ld	a,(OFST-6,sp)
3463  05d5 ae0060        	ldw	x,#96
3464  05d8 95            	ld	xh,a
3465  05d9 cd00d2        	call	_OLED_write
3467                     ; 435         OLED_write(expanded2, SSD1306_DAT);
3469  05dc 7b05          	ld	a,(OFST-5,sp)
3470  05de ae0060        	ldw	x,#96
3471  05e1 95            	ld	xh,a
3472  05e2 cd00d2        	call	_OLED_write
3474                     ; 438         OLED_gotoxy(x_pos + (s * 2), y_pos + 1);
3476  05e5 7b0c          	ld	a,(OFST+2,sp)
3477  05e7 4c            	inc	a
3478  05e8 97            	ld	xl,a
3479  05e9 7b09          	ld	a,(OFST-1,sp)
3480  05eb 48            	sll	a
3481  05ec 1b0b          	add	a,(OFST+1,sp)
3482  05ee 95            	ld	xh,a
3483  05ef cd011c        	call	_OLED_gotoxy
3485                     ; 439         OLED_write(expanded3, SSD1306_DAT);
3487  05f2 7b06          	ld	a,(OFST-4,sp)
3488  05f4 ae0060        	ldw	x,#96
3489  05f7 95            	ld	xh,a
3490  05f8 cd00d2        	call	_OLED_write
3492                     ; 440         OLED_write(expanded4, SSD1306_DAT);
3494  05fb 7b07          	ld	a,(OFST-3,sp)
3495  05fd ae0060        	ldw	x,#96
3496  0600 95            	ld	xh,a
3497  0601 cd00d2        	call	_OLED_write
3499                     ; 405     for(s = 0; s < 6; s++)
3501  0604 0c09          	inc	(OFST-1,sp)
3505  0606 7b09          	ld	a,(OFST-1,sp)
3506  0608 a106          	cp	a,#6
3507  060a 2403          	jruge	L221
3508  060c cc050f        	jp	L3321
3509  060f               L221:
3510                     ; 442 }
3513  060f 5b0c          	addw	sp,#12
3514  0611 81            	ret
3570                     ; 444 void OLED_print_string_2x(unsigned char x_pos, unsigned char y_pos, char *ch)
3570                     ; 445 {
3571                     	switch	.text
3572  0612               _OLED_print_string_2x:
3574  0612 89            	pushw	x
3575       00000000      OFST:	set	0
3578  0613               L7031:
3579                     ; 448         OLED_print_2xChar(x_pos, y_pos, *ch++);
3581  0613 1e05          	ldw	x,(OFST+5,sp)
3582  0615 1c0001        	addw	x,#1
3583  0618 1f05          	ldw	(OFST+5,sp),x
3584  061a 1d0001        	subw	x,#1
3585  061d f6            	ld	a,(x)
3586  061e 88            	push	a
3587  061f 7b03          	ld	a,(OFST+3,sp)
3588  0621 97            	ld	xl,a
3589  0622 7b02          	ld	a,(OFST+2,sp)
3590  0624 95            	ld	xh,a
3591  0625 cd04f1        	call	_OLED_print_2xChar
3593  0628 84            	pop	a
3594                     ; 449         x_pos += 12;  // 2­¿¦rÅé¼e«×
3596  0629 7b01          	ld	a,(OFST+1,sp)
3597  062b ab0c          	add	a,#12
3598  062d 6b01          	ld	(OFST+1,sp),a
3599                     ; 452         if(x_pos > (x_max - 12) && (*ch != '\0'))
3601  062f 7b01          	ld	a,(OFST+1,sp)
3602  0631 a175          	cp	a,#117
3603  0633 2514          	jrult	L1131
3605  0635 1e05          	ldw	x,(OFST+5,sp)
3606  0637 7d            	tnz	(x)
3607  0638 270f          	jreq	L1131
3608                     ; 454             x_pos = 0;
3610  063a 0f01          	clr	(OFST+1,sp)
3611                     ; 455             y_pos++;  // ¥u²¾°Ê¨ì¤U¤@­¶
3613  063c 0c02          	inc	(OFST+2,sp)
3614                     ; 456             if(y_pos > 3) 
3616  063e 7b02          	ld	a,(OFST+2,sp)
3617  0640 a104          	cp	a,#4
3618  0642 2505          	jrult	L1131
3619                     ; 458                 y_pos = 0;
3621  0644 0f02          	clr	(OFST+2,sp)
3622                     ; 459                 OLED_clear_screen();
3624  0646 cd0311        	call	_OLED_clear_screen
3626  0649               L1131:
3627                     ; 462     }while((*ch >= 0x20) && (*ch <= 0x7F));
3629  0649 1e05          	ldw	x,(OFST+5,sp)
3630  064b f6            	ld	a,(x)
3631  064c a120          	cp	a,#32
3632  064e 2507          	jrult	L1231
3634  0650 1e05          	ldw	x,(OFST+5,sp)
3635  0652 f6            	ld	a,(x)
3636  0653 a180          	cp	a,#128
3637  0655 25bc          	jrult	L7031
3638  0657               L1231:
3639                     ; 463 }
3642  0657 85            	popw	x
3643  0658 81            	ret
3693                     ; 465 void OLED_clear_value_area(void)
3693                     ; 466 {
3694                     	switch	.text
3695  0659               _OLED_clear_value_area:
3697  0659 89            	pushw	x
3698       00000002      OFST:	set	2
3701                     ; 470     for(page = 2; page < 4; page++)
3703  065a a602          	ld	a,#2
3704  065c 6b01          	ld	(OFST-1,sp),a
3706  065e               L5431:
3707                     ; 472         OLED_gotoxy(0, page);
3709  065e 7b01          	ld	a,(OFST-1,sp)
3710  0660 5f            	clrw	x
3711  0661 97            	ld	xl,a
3712  0662 cd011c        	call	_OLED_gotoxy
3714                     ; 474         I2C_GenerateSTART(ENABLE);
3716  0665 a601          	ld	a,#1
3717  0667 cd0000        	call	_I2C_GenerateSTART
3720  066a               L5531:
3721                     ; 475         while(!I2C_CheckEvent(I2C_EVENT_MASTER_MODE_SELECT));
3723  066a ae0301        	ldw	x,#769
3724  066d cd0000        	call	_I2C_CheckEvent
3726  0670 4d            	tnz	a
3727  0671 27f7          	jreq	L5531
3728                     ; 477         I2C_Send7bitAddress(SSD1306_I2C_Address, I2C_DIRECTION_TX); 
3730  0673 ae7800        	ldw	x,#30720
3731  0676 cd0000        	call	_I2C_Send7bitAddress
3734  0679               L3631:
3735                     ; 478         while(!I2C_CheckEvent(I2C_EVENT_MASTER_TRANSMITTER_MODE_SELECTED));
3737  0679 ae0782        	ldw	x,#1922
3738  067c cd0000        	call	_I2C_CheckEvent
3740  067f 4d            	tnz	a
3741  0680 27f7          	jreq	L3631
3742                     ; 480         I2C_SendData(SSD1306_DAT);
3744  0682 a660          	ld	a,#96
3745  0684 cd0000        	call	_I2C_SendData
3748  0687               L1731:
3749                     ; 481         while(!I2C_CheckEvent(I2C_EVENT_MASTER_BYTE_TRANSMITTING));    
3751  0687 ae0780        	ldw	x,#1920
3752  068a cd0000        	call	_I2C_CheckEvent
3754  068d 4d            	tnz	a
3755  068e 27f7          	jreq	L1731
3756                     ; 483         for(x = 0; x < x_max; x++)
3758  0690 0f02          	clr	(OFST+0,sp)
3760  0692               L5731:
3761                     ; 485            I2C_SendData(0x00);
3763  0692 4f            	clr	a
3764  0693 cd0000        	call	_I2C_SendData
3767  0696               L5041:
3768                     ; 486            while(!I2C_CheckEvent(I2C_EVENT_MASTER_BYTE_TRANSMITTED));  
3770  0696 ae0784        	ldw	x,#1924
3771  0699 cd0000        	call	_I2C_CheckEvent
3773  069c 4d            	tnz	a
3774  069d 27f7          	jreq	L5041
3775                     ; 483         for(x = 0; x < x_max; x++)
3777  069f 0c02          	inc	(OFST+0,sp)
3781  06a1 7b02          	ld	a,(OFST+0,sp)
3782  06a3 a180          	cp	a,#128
3783  06a5 25eb          	jrult	L5731
3784                     ; 489         I2C_GenerateSTOP(ENABLE);  
3786  06a7 a601          	ld	a,#1
3787  06a9 cd0000        	call	_I2C_GenerateSTOP
3789                     ; 470     for(page = 2; page < 4; page++)
3791  06ac 0c01          	inc	(OFST-1,sp)
3795  06ae 7b01          	ld	a,(OFST-1,sp)
3796  06b0 a104          	cp	a,#4
3797  06b2 25aa          	jrult	L5431
3798                     ; 491 }
3801  06b4 85            	popw	x
3802  06b5 81            	ret
3882                     ; 494 void clear_rect_area(unsigned char x_start, unsigned char y_start, 
3882                     ; 495                      unsigned char width, unsigned char height)
3882                     ; 496 {
3883                     	switch	.text
3884  06b6               _clear_rect_area:
3886  06b6 89            	pushw	x
3887  06b7 89            	pushw	x
3888       00000002      OFST:	set	2
3891                     ; 499     for(i = 0; i < width; i++) {
3893  06b8 0f01          	clr	(OFST-1,sp)
3896  06ba 201e          	jra	L7541
3897  06bc               L3541:
3898                     ; 500         for(j = 0; j < height; j++) {
3900  06bc 0f02          	clr	(OFST+0,sp)
3903  06be 2012          	jra	L7641
3904  06c0               L3641:
3905                     ; 501             Draw_Pixel(x_start + i, y_start + j, 0);
3907  06c0 4b00          	push	#0
3908  06c2 7b05          	ld	a,(OFST+3,sp)
3909  06c4 1b03          	add	a,(OFST+1,sp)
3910  06c6 97            	ld	xl,a
3911  06c7 7b04          	ld	a,(OFST+2,sp)
3912  06c9 1b02          	add	a,(OFST+0,sp)
3913  06cb 95            	ld	xh,a
3914  06cc cd0474        	call	_Draw_Pixel
3916  06cf 84            	pop	a
3917                     ; 500         for(j = 0; j < height; j++) {
3919  06d0 0c02          	inc	(OFST+0,sp)
3921  06d2               L7641:
3924  06d2 7b02          	ld	a,(OFST+0,sp)
3925  06d4 1108          	cp	a,(OFST+6,sp)
3926  06d6 25e8          	jrult	L3641
3927                     ; 499     for(i = 0; i < width; i++) {
3929  06d8 0c01          	inc	(OFST-1,sp)
3931  06da               L7541:
3934  06da 7b01          	ld	a,(OFST-1,sp)
3935  06dc 1107          	cp	a,(OFST+5,sp)
3936  06de 25dc          	jrult	L3541
3937                     ; 504 }
3940  06e0 5b04          	addw	sp,#4
3941  06e2 81            	ret
3967                     ; 506 void Low_water(void){
3968                     	switch	.text
3969  06e3               _Low_water:
3973                     ; 508 	OLED_print_Image(water_Full,Display_OFF);	
3975  06e3 4b00          	push	#0
3976  06e5 ae0228        	ldw	x,#_water_Full
3977  06e8 cd01aa        	call	_OLED_print_Image
3979  06eb 84            	pop	a
3980                     ; 509 	delay_ms(100);
3982  06ec ae0064        	ldw	x,#100
3983  06ef cd0000        	call	_delay_ms
3985                     ; 510 }
3988  06f2 81            	ret
4014                     ; 512 void Full_Water(void){
4015                     	switch	.text
4016  06f3               _Full_Water:
4020                     ; 514 	OLED_print_Image(water_Low,Display_OFF);	
4022  06f3 4b00          	push	#0
4023  06f5 ae0248        	ldw	x,#_water_Low
4024  06f8 cd01aa        	call	_OLED_print_Image
4026  06fb 84            	pop	a
4027                     ; 515 	delay_ms(100);
4029  06fc ae0064        	ldw	x,#100
4030  06ff cd0000        	call	_delay_ms
4032                     ; 516 }
4035  0702 81            	ret
4061                     ; 519 void Full_Water_position(void){
4062                     	switch	.text
4063  0703               _Full_Water_position:
4067                     ; 520 	OLED_print_Image_2page(96,0,water_bottle,Display_OFF);
4069  0703 4b00          	push	#0
4070  0705 ae0268        	ldw	x,#_water_bottle
4071  0708 89            	pushw	x
4072  0709 ae6000        	ldw	x,#24576
4073  070c cd021f        	call	_OLED_print_Image_2page
4075  070f 5b03          	addw	sp,#3
4076                     ; 521 }
4079  0711 81            	ret
4104                     ; 523 void Moisturn_Full_D1 (void){
4105                     	switch	.text
4106  0712               _Moisturn_Full_D1:
4110                     ; 524 OLED_print_Image_4page(96,0,Moisturn_Full,Display_ON);
4112  0712 4b01          	push	#1
4113  0714 ae0288        	ldw	x,#_Moisturn_Full
4114  0717 89            	pushw	x
4115  0718 ae6000        	ldw	x,#24576
4116  071b cd0298        	call	_OLED_print_Image_4page
4118  071e 5b03          	addw	sp,#3
4119                     ; 525 }
4122  0720 81            	ret
4135                     	xdef	_Moisturn_Full_D1
4136                     	xdef	_Full_Water_position
4137                     	xdef	_Full_Water
4138                     	xdef	_Low_water
4139                     	xdef	_clear_rect_area
4140                     	xdef	_OLED_clear_value_area
4141                     	xdef	_OLED_print_string_2x
4142                     	xdef	_OLED_print_2xChar
4143                     	xdef	_Draw_Pixel
4144                     	xdef	_OLED_print_int
4145                     	xdef	_OLED_print_string
4146                     	xdef	_OLED_print_char
4147                     	xdef	_OLED_clear_buffer
4148                     	xdef	_OLED_clear_screen
4149                     	xdef	_OLED_print_Image_4page
4150                     	xdef	_OLED_print_Image_2page
4151                     	xdef	_OLED_print_Image
4152                     	xdef	_OLED_fill
4153                     	xdef	_OLED_gotoxy
4154                     	xdef	_OLED_write
4155                     	xdef	_OLED_init
4156                     	xdef	_OLED_HW_setup
4157                     	xdef	_I2C_setup
4158                     	xref.b	_buffer
4159                     	xref	_I2C_GetFlagStatus
4160                     	xref	_I2C_CheckEvent
4161                     	xref	_I2C_SendData
4162                     	xref	_I2C_Send7bitAddress
4163                     	xref	_I2C_GenerateSTOP
4164                     	xref	_I2C_GenerateSTART
4165                     	xref	_I2C_Cmd
4166                     	xref	_I2C_Init
4167                     	xref	_I2C_DeInit
4168                     	xref	_CLK_GetClockFreq
4169                     	xref	_delay_ms
4170                     	xdef	_Moisturn_Full
4171                     	xdef	_water_bottle
4172                     	xdef	_water_Low
4173                     	xdef	_water_Full
4174                     	xref.b	c_lreg
4175                     	xref.b	c_x
4194                     	xref	c_lzmp
4195                     	xref	c_ladc
4196                     	xref	c_lumd
4197                     	xref	c_rtol
4198                     	xref	c_lneg
4199                     	xref	c_ltor
4200                     	xref	c_xymov
4201                     	xref	c_ludv
4202                     	end
