   1                     ; C Compiler for STM8 (COSMIC Software)
   2                     ; Parser V4.12.6 - 16 Dec 2021
   3                     ; Generator (Limited) V4.5.4 - 16 Dec 2021
  14                     .const:	section	.text
  15  0000               L3_font_regular:
  16  0000 00            	dc.b	0
  17  0001 00            	dc.b	0
  18  0002 00            	dc.b	0
  19  0003 00            	dc.b	0
  20  0004 00            	dc.b	0
  21  0005 00            	dc.b	0
  22  0006 00            	dc.b	0
  23  0007 00            	dc.b	0
  24  0008 00            	dc.b	0
  25  0009 2f            	dc.b	47
  26  000a 00            	dc.b	0
  27  000b 00            	dc.b	0
  28  000c 00            	dc.b	0
  29  000d 00            	dc.b	0
  30  000e 07            	dc.b	7
  31  000f 00            	dc.b	0
  32  0010 07            	dc.b	7
  33  0011 00            	dc.b	0
  34  0012 00            	dc.b	0
  35  0013 14            	dc.b	20
  36  0014 7f            	dc.b	127
  37  0015 14            	dc.b	20
  38  0016 7f            	dc.b	127
  39  0017 14            	dc.b	20
  40  0018 00            	dc.b	0
  41  0019 24            	dc.b	36
  42  001a 2a            	dc.b	42
  43  001b 7f            	dc.b	127
  44  001c 2a            	dc.b	42
  45  001d 12            	dc.b	18
  46  001e 00            	dc.b	0
  47  001f 62            	dc.b	98
  48  0020 64            	dc.b	100
  49  0021 08            	dc.b	8
  50  0022 13            	dc.b	19
  51  0023 23            	dc.b	35
  52  0024 00            	dc.b	0
  53  0025 36            	dc.b	54
  54  0026 49            	dc.b	73
  55  0027 55            	dc.b	85
  56  0028 22            	dc.b	34
  57  0029 50            	dc.b	80
  58  002a 00            	dc.b	0
  59  002b 00            	dc.b	0
  60  002c 05            	dc.b	5
  61  002d 03            	dc.b	3
  62  002e 00            	dc.b	0
  63  002f 00            	dc.b	0
  64  0030 00            	dc.b	0
  65  0031 00            	dc.b	0
  66  0032 1c            	dc.b	28
  67  0033 22            	dc.b	34
  68  0034 41            	dc.b	65
  69  0035 00            	dc.b	0
  70  0036 00            	dc.b	0
  71  0037 00            	dc.b	0
  72  0038 41            	dc.b	65
  73  0039 22            	dc.b	34
  74  003a 1c            	dc.b	28
  75  003b 00            	dc.b	0
  76  003c 00            	dc.b	0
  77  003d 14            	dc.b	20
  78  003e 08            	dc.b	8
  79  003f 3e            	dc.b	62
  80  0040 08            	dc.b	8
  81  0041 14            	dc.b	20
  82  0042 00            	dc.b	0
  83  0043 08            	dc.b	8
  84  0044 08            	dc.b	8
  85  0045 3e            	dc.b	62
  86  0046 08            	dc.b	8
  87  0047 08            	dc.b	8
  88  0048 00            	dc.b	0
  89  0049 00            	dc.b	0
  90  004a 00            	dc.b	0
  91  004b a0            	dc.b	160
  92  004c 60            	dc.b	96
  93  004d 00            	dc.b	0
  94  004e 00            	dc.b	0
  95  004f 08            	dc.b	8
  96  0050 08            	dc.b	8
  97  0051 08            	dc.b	8
  98  0052 08            	dc.b	8
  99  0053 08            	dc.b	8
 100  0054 00            	dc.b	0
 101  0055 00            	dc.b	0
 102  0056 60            	dc.b	96
 103  0057 60            	dc.b	96
 104  0058 00            	dc.b	0
 105  0059 00            	dc.b	0
 106  005a 00            	dc.b	0
 107  005b 20            	dc.b	32
 108  005c 10            	dc.b	16
 109  005d 08            	dc.b	8
 110  005e 04            	dc.b	4
 111  005f 02            	dc.b	2
 112  0060 00            	dc.b	0
 113  0061 3e            	dc.b	62
 114  0062 51            	dc.b	81
 115  0063 49            	dc.b	73
 116  0064 45            	dc.b	69
 117  0065 3e            	dc.b	62
 118  0066 00            	dc.b	0
 119  0067 00            	dc.b	0
 120  0068 42            	dc.b	66
 121  0069 7f            	dc.b	127
 122  006a 40            	dc.b	64
 123  006b 00            	dc.b	0
 124  006c 00            	dc.b	0
 125  006d 42            	dc.b	66
 126  006e 61            	dc.b	97
 127  006f 51            	dc.b	81
 128  0070 49            	dc.b	73
 129  0071 46            	dc.b	70
 130  0072 00            	dc.b	0
 131  0073 21            	dc.b	33
 132  0074 41            	dc.b	65
 133  0075 45            	dc.b	69
 134  0076 4b            	dc.b	75
 135  0077 31            	dc.b	49
 136  0078 00            	dc.b	0
 137  0079 18            	dc.b	24
 138  007a 14            	dc.b	20
 139  007b 12            	dc.b	18
 140  007c 7f            	dc.b	127
 141  007d 10            	dc.b	16
 142  007e 00            	dc.b	0
 143  007f 27            	dc.b	39
 144  0080 45            	dc.b	69
 145  0081 45            	dc.b	69
 146  0082 45            	dc.b	69
 147  0083 39            	dc.b	57
 148  0084 00            	dc.b	0
 149  0085 3c            	dc.b	60
 150  0086 4a            	dc.b	74
 151  0087 49            	dc.b	73
 152  0088 49            	dc.b	73
 153  0089 30            	dc.b	48
 154  008a 00            	dc.b	0
 155  008b 01            	dc.b	1
 156  008c 71            	dc.b	113
 157  008d 09            	dc.b	9
 158  008e 05            	dc.b	5
 159  008f 03            	dc.b	3
 160  0090 00            	dc.b	0
 161  0091 36            	dc.b	54
 162  0092 49            	dc.b	73
 163  0093 49            	dc.b	73
 164  0094 49            	dc.b	73
 165  0095 36            	dc.b	54
 166  0096 00            	dc.b	0
 167  0097 06            	dc.b	6
 168  0098 49            	dc.b	73
 169  0099 49            	dc.b	73
 170  009a 29            	dc.b	41
 171  009b 1e            	dc.b	30
 172  009c 00            	dc.b	0
 173  009d 00            	dc.b	0
 174  009e 36            	dc.b	54
 175  009f 36            	dc.b	54
 176  00a0 00            	dc.b	0
 177  00a1 00            	dc.b	0
 178  00a2 00            	dc.b	0
 179  00a3 00            	dc.b	0
 180  00a4 56            	dc.b	86
 181  00a5 36            	dc.b	54
 182  00a6 00            	dc.b	0
 183  00a7 00            	dc.b	0
 184  00a8 00            	dc.b	0
 185  00a9 08            	dc.b	8
 186  00aa 14            	dc.b	20
 187  00ab 22            	dc.b	34
 188  00ac 41            	dc.b	65
 189  00ad 00            	dc.b	0
 190  00ae 00            	dc.b	0
 191  00af 14            	dc.b	20
 192  00b0 14            	dc.b	20
 193  00b1 14            	dc.b	20
 194  00b2 14            	dc.b	20
 195  00b3 14            	dc.b	20
 196  00b4 00            	dc.b	0
 197  00b5 00            	dc.b	0
 198  00b6 41            	dc.b	65
 199  00b7 22            	dc.b	34
 200  00b8 14            	dc.b	20
 201  00b9 08            	dc.b	8
 202  00ba 00            	dc.b	0
 203  00bb 02            	dc.b	2
 204  00bc 01            	dc.b	1
 205  00bd 51            	dc.b	81
 206  00be 09            	dc.b	9
 207  00bf 06            	dc.b	6
 208  00c0 00            	dc.b	0
 209  00c1 32            	dc.b	50
 210  00c2 49            	dc.b	73
 211  00c3 59            	dc.b	89
 212  00c4 51            	dc.b	81
 213  00c5 3e            	dc.b	62
 214  00c6 00            	dc.b	0
 215  00c7 7c            	dc.b	124
 216  00c8 12            	dc.b	18
 217  00c9 11            	dc.b	17
 218  00ca 12            	dc.b	18
 219  00cb 7c            	dc.b	124
 220  00cc 00            	dc.b	0
 221  00cd 7f            	dc.b	127
 222  00ce 49            	dc.b	73
 223  00cf 49            	dc.b	73
 224  00d0 49            	dc.b	73
 225  00d1 36            	dc.b	54
 226  00d2 00            	dc.b	0
 227  00d3 3e            	dc.b	62
 228  00d4 41            	dc.b	65
 229  00d5 41            	dc.b	65
 230  00d6 41            	dc.b	65
 231  00d7 22            	dc.b	34
 232  00d8 00            	dc.b	0
 233  00d9 7f            	dc.b	127
 234  00da 41            	dc.b	65
 235  00db 41            	dc.b	65
 236  00dc 22            	dc.b	34
 237  00dd 1c            	dc.b	28
 238  00de 00            	dc.b	0
 239  00df 7f            	dc.b	127
 240  00e0 49            	dc.b	73
 241  00e1 49            	dc.b	73
 242  00e2 49            	dc.b	73
 243  00e3 41            	dc.b	65
 244  00e4 00            	dc.b	0
 245  00e5 7f            	dc.b	127
 246  00e6 09            	dc.b	9
 247  00e7 09            	dc.b	9
 248  00e8 09            	dc.b	9
 249  00e9 01            	dc.b	1
 250  00ea 00            	dc.b	0
 251  00eb 3e            	dc.b	62
 252  00ec 41            	dc.b	65
 253  00ed 49            	dc.b	73
 254  00ee 49            	dc.b	73
 255  00ef 7a            	dc.b	122
 256  00f0 00            	dc.b	0
 257  00f1 7f            	dc.b	127
 258  00f2 08            	dc.b	8
 259  00f3 08            	dc.b	8
 260  00f4 08            	dc.b	8
 261  00f5 7f            	dc.b	127
 262  00f6 00            	dc.b	0
 263  00f7 00            	dc.b	0
 264  00f8 41            	dc.b	65
 265  00f9 7f            	dc.b	127
 266  00fa 41            	dc.b	65
 267  00fb 00            	dc.b	0
 268  00fc 00            	dc.b	0
 269  00fd 20            	dc.b	32
 270  00fe 40            	dc.b	64
 271  00ff 41            	dc.b	65
 272  0100 3f            	dc.b	63
 273  0101 01            	dc.b	1
 274  0102 00            	dc.b	0
 275  0103 7f            	dc.b	127
 276  0104 08            	dc.b	8
 277  0105 14            	dc.b	20
 278  0106 22            	dc.b	34
 279  0107 41            	dc.b	65
 280  0108 00            	dc.b	0
 281  0109 7f            	dc.b	127
 282  010a 40            	dc.b	64
 283  010b 40            	dc.b	64
 284  010c 40            	dc.b	64
 285  010d 40            	dc.b	64
 286  010e 00            	dc.b	0
 287  010f 7f            	dc.b	127
 288  0110 02            	dc.b	2
 289  0111 0c            	dc.b	12
 290  0112 02            	dc.b	2
 291  0113 7f            	dc.b	127
 292  0114 00            	dc.b	0
 293  0115 7f            	dc.b	127
 294  0116 04            	dc.b	4
 295  0117 08            	dc.b	8
 296  0118 10            	dc.b	16
 297  0119 7f            	dc.b	127
 298  011a 00            	dc.b	0
 299  011b 3e            	dc.b	62
 300  011c 41            	dc.b	65
 301  011d 41            	dc.b	65
 302  011e 41            	dc.b	65
 303  011f 3e            	dc.b	62
 304  0120 00            	dc.b	0
 305  0121 7f            	dc.b	127
 306  0122 09            	dc.b	9
 307  0123 09            	dc.b	9
 308  0124 09            	dc.b	9
 309  0125 06            	dc.b	6
 310  0126 00            	dc.b	0
 311  0127 3e            	dc.b	62
 312  0128 41            	dc.b	65
 313  0129 51            	dc.b	81
 314  012a 21            	dc.b	33
 315  012b 5e            	dc.b	94
 316  012c 00            	dc.b	0
 317  012d 7f            	dc.b	127
 318  012e 09            	dc.b	9
 319  012f 19            	dc.b	25
 320  0130 29            	dc.b	41
 321  0131 46            	dc.b	70
 322  0132 00            	dc.b	0
 323  0133 46            	dc.b	70
 324  0134 49            	dc.b	73
 325  0135 49            	dc.b	73
 326  0136 49            	dc.b	73
 327  0137 31            	dc.b	49
 328  0138 00            	dc.b	0
 329  0139 01            	dc.b	1
 330  013a 01            	dc.b	1
 331  013b 7f            	dc.b	127
 332  013c 01            	dc.b	1
 333  013d 01            	dc.b	1
 334  013e 00            	dc.b	0
 335  013f 3f            	dc.b	63
 336  0140 40            	dc.b	64
 337  0141 40            	dc.b	64
 338  0142 40            	dc.b	64
 339  0143 3f            	dc.b	63
 340  0144 00            	dc.b	0
 341  0145 1f            	dc.b	31
 342  0146 20            	dc.b	32
 343  0147 40            	dc.b	64
 344  0148 20            	dc.b	32
 345  0149 1f            	dc.b	31
 346  014a 00            	dc.b	0
 347  014b 3f            	dc.b	63
 348  014c 40            	dc.b	64
 349  014d 38            	dc.b	56
 350  014e 40            	dc.b	64
 351  014f 3f            	dc.b	63
 352  0150 00            	dc.b	0
 353  0151 63            	dc.b	99
 354  0152 14            	dc.b	20
 355  0153 08            	dc.b	8
 356  0154 14            	dc.b	20
 357  0155 63            	dc.b	99
 358  0156 00            	dc.b	0
 359  0157 07            	dc.b	7
 360  0158 08            	dc.b	8
 361  0159 70            	dc.b	112
 362  015a 08            	dc.b	8
 363  015b 07            	dc.b	7
 364  015c 00            	dc.b	0
 365  015d 61            	dc.b	97
 366  015e 51            	dc.b	81
 367  015f 49            	dc.b	73
 368  0160 45            	dc.b	69
 369  0161 43            	dc.b	67
 370  0162 00            	dc.b	0
 371  0163 00            	dc.b	0
 372  0164 7f            	dc.b	127
 373  0165 41            	dc.b	65
 374  0166 41            	dc.b	65
 375  0167 00            	dc.b	0
 376  0168 00            	dc.b	0
 377  0169 02            	dc.b	2
 378  016a 04            	dc.b	4
 379  016b 08            	dc.b	8
 380  016c 10            	dc.b	16
 381  016d 20            	dc.b	32
 382  016e 00            	dc.b	0
 383  016f 00            	dc.b	0
 384  0170 41            	dc.b	65
 385  0171 41            	dc.b	65
 386  0172 7f            	dc.b	127
 387  0173 00            	dc.b	0
 388  0174 00            	dc.b	0
 389  0175 04            	dc.b	4
 390  0176 02            	dc.b	2
 391  0177 01            	dc.b	1
 392  0178 02            	dc.b	2
 393  0179 04            	dc.b	4
 394  017a 00            	dc.b	0
 395  017b 40            	dc.b	64
 396  017c 40            	dc.b	64
 397  017d 40            	dc.b	64
 398  017e 40            	dc.b	64
 399  017f 40            	dc.b	64
 400  0180 00            	dc.b	0
 401  0181 00            	dc.b	0
 402  0182 01            	dc.b	1
 403  0183 02            	dc.b	2
 404  0184 04            	dc.b	4
 405  0185 00            	dc.b	0
 406  0186 00            	dc.b	0
 407  0187 20            	dc.b	32
 408  0188 54            	dc.b	84
 409  0189 54            	dc.b	84
 410  018a 54            	dc.b	84
 411  018b 78            	dc.b	120
 412  018c 00            	dc.b	0
 413  018d 7f            	dc.b	127
 414  018e 48            	dc.b	72
 415  018f 44            	dc.b	68
 416  0190 44            	dc.b	68
 417  0191 38            	dc.b	56
 418  0192 00            	dc.b	0
 419  0193 38            	dc.b	56
 420  0194 44            	dc.b	68
 421  0195 44            	dc.b	68
 422  0196 44            	dc.b	68
 423  0197 20            	dc.b	32
 424  0198 00            	dc.b	0
 425  0199 38            	dc.b	56
 426  019a 44            	dc.b	68
 427  019b 44            	dc.b	68
 428  019c 48            	dc.b	72
 429  019d 7f            	dc.b	127
 430  019e 00            	dc.b	0
 431  019f 38            	dc.b	56
 432  01a0 54            	dc.b	84
 433  01a1 54            	dc.b	84
 434  01a2 54            	dc.b	84
 435  01a3 18            	dc.b	24
 436  01a4 00            	dc.b	0
 437  01a5 08            	dc.b	8
 438  01a6 7e            	dc.b	126
 439  01a7 09            	dc.b	9
 440  01a8 01            	dc.b	1
 441  01a9 02            	dc.b	2
 442  01aa 00            	dc.b	0
 443  01ab 18            	dc.b	24
 444  01ac a4            	dc.b	164
 445  01ad a4            	dc.b	164
 446  01ae a4            	dc.b	164
 447  01af 7c            	dc.b	124
 448  01b0 00            	dc.b	0
 449  01b1 7f            	dc.b	127
 450  01b2 08            	dc.b	8
 451  01b3 04            	dc.b	4
 452  01b4 04            	dc.b	4
 453  01b5 78            	dc.b	120
 454  01b6 00            	dc.b	0
 455  01b7 00            	dc.b	0
 456  01b8 44            	dc.b	68
 457  01b9 7d            	dc.b	125
 458  01ba 40            	dc.b	64
 459  01bb 00            	dc.b	0
 460  01bc 00            	dc.b	0
 461  01bd 40            	dc.b	64
 462  01be 80            	dc.b	128
 463  01bf 84            	dc.b	132
 464  01c0 7d            	dc.b	125
 465  01c1 00            	dc.b	0
 466  01c2 00            	dc.b	0
 467  01c3 7f            	dc.b	127
 468  01c4 10            	dc.b	16
 469  01c5 28            	dc.b	40
 470  01c6 44            	dc.b	68
 471  01c7 00            	dc.b	0
 472  01c8 00            	dc.b	0
 473  01c9 00            	dc.b	0
 474  01ca 41            	dc.b	65
 475  01cb 7f            	dc.b	127
 476  01cc 40            	dc.b	64
 477  01cd 00            	dc.b	0
 478  01ce 00            	dc.b	0
 479  01cf 7c            	dc.b	124
 480  01d0 04            	dc.b	4
 481  01d1 18            	dc.b	24
 482  01d2 04            	dc.b	4
 483  01d3 78            	dc.b	120
 484  01d4 00            	dc.b	0
 485  01d5 7c            	dc.b	124
 486  01d6 08            	dc.b	8
 487  01d7 04            	dc.b	4
 488  01d8 04            	dc.b	4
 489  01d9 78            	dc.b	120
 490  01da 00            	dc.b	0
 491  01db 38            	dc.b	56
 492  01dc 44            	dc.b	68
 493  01dd 44            	dc.b	68
 494  01de 44            	dc.b	68
 495  01df 38            	dc.b	56
 496  01e0 00            	dc.b	0
 497  01e1 fc            	dc.b	252
 498  01e2 24            	dc.b	36
 499  01e3 24            	dc.b	36
 500  01e4 24            	dc.b	36
 501  01e5 18            	dc.b	24
 502  01e6 00            	dc.b	0
 503  01e7 18            	dc.b	24
 504  01e8 24            	dc.b	36
 505  01e9 24            	dc.b	36
 506  01ea 18            	dc.b	24
 507  01eb fc            	dc.b	252
 508  01ec 00            	dc.b	0
 509  01ed 7c            	dc.b	124
 510  01ee 08            	dc.b	8
 511  01ef 04            	dc.b	4
 512  01f0 04            	dc.b	4
 513  01f1 08            	dc.b	8
 514  01f2 00            	dc.b	0
 515  01f3 48            	dc.b	72
 516  01f4 54            	dc.b	84
 517  01f5 54            	dc.b	84
 518  01f6 54            	dc.b	84
 519  01f7 20            	dc.b	32
 520  01f8 00            	dc.b	0
 521  01f9 04            	dc.b	4
 522  01fa 3f            	dc.b	63
 523  01fb 44            	dc.b	68
 524  01fc 40            	dc.b	64
 525  01fd 20            	dc.b	32
 526  01fe 00            	dc.b	0
 527  01ff 3c            	dc.b	60
 528  0200 40            	dc.b	64
 529  0201 40            	dc.b	64
 530  0202 20            	dc.b	32
 531  0203 7c            	dc.b	124
 532  0204 00            	dc.b	0
 533  0205 1c            	dc.b	28
 534  0206 20            	dc.b	32
 535  0207 40            	dc.b	64
 536  0208 20            	dc.b	32
 537  0209 1c            	dc.b	28
 538  020a 00            	dc.b	0
 539  020b 3c            	dc.b	60
 540  020c 40            	dc.b	64
 541  020d 30            	dc.b	48
 542  020e 40            	dc.b	64
 543  020f 3c            	dc.b	60
 544  0210 00            	dc.b	0
 545  0211 44            	dc.b	68
 546  0212 28            	dc.b	40
 547  0213 10            	dc.b	16
 548  0214 28            	dc.b	40
 549  0215 44            	dc.b	68
 550  0216 00            	dc.b	0
 551  0217 1c            	dc.b	28
 552  0218 a0            	dc.b	160
 553  0219 a0            	dc.b	160
 554  021a a0            	dc.b	160
 555  021b 7c            	dc.b	124
 556  021c 00            	dc.b	0
 557  021d 44            	dc.b	68
 558  021e 64            	dc.b	100
 559  021f 54            	dc.b	84
 560  0220 4c            	dc.b	76
 561  0221 44            	dc.b	68
 562  0222 14            	dc.b	20
 563  0223 14            	dc.b	20
 564  0224 14            	dc.b	20
 565  0225 14            	dc.b	20
 566  0226 14            	dc.b	20
 567  0227 14            	dc.b	20
 630                     	switch	.const
 631  0228               L6:
 632  0228 000f4240      	dc.l	1000000
 633                     ; 5 void I2C_setup(void)
 633                     ; 6 {
 634                     	scross	off
 635                     	switch	.text
 636  0000               _I2C_setup:
 640                     ; 7     I2C_DeInit();
 642  0000 cd0000        	call	_I2C_DeInit
 644                     ; 9     I2C_Init(100000, 
 644                     ; 10              SSD1306_I2C_Address, 
 644                     ; 11              I2C_DUTYCYCLE_2, 
 644                     ; 12              I2C_ACK_CURR, 
 644                     ; 13              I2C_ADDMODE_7BIT, 
 644                     ; 14              (CLK_GetClockFreq() / 1000000));
 646  0003 cd0000        	call	_CLK_GetClockFreq
 648  0006 ae0228        	ldw	x,#L6
 649  0009 cd0000        	call	c_ludv
 651  000c b603          	ld	a,c_lreg+3
 652  000e 88            	push	a
 653  000f 4b00          	push	#0
 654  0011 4b01          	push	#1
 655  0013 4b00          	push	#0
 656  0015 ae0078        	ldw	x,#120
 657  0018 89            	pushw	x
 658  0019 ae86a0        	ldw	x,#34464
 659  001c 89            	pushw	x
 660  001d ae0001        	ldw	x,#1
 661  0020 89            	pushw	x
 662  0021 cd0000        	call	_I2C_Init
 664  0024 5b0a          	addw	sp,#10
 665                     ; 16     I2C_Cmd(ENABLE);
 667  0026 a601          	ld	a,#1
 668  0028 cd0000        	call	_I2C_Cmd
 670                     ; 17 }
 673  002b 81            	ret
 697                     ; 20 void OLED_HW_setup(void)
 697                     ; 21 {
 698                     	switch	.text
 699  002c               _OLED_HW_setup:
 703                     ; 22 	I2C_setup();
 705  002c add2          	call	_I2C_setup
 707                     ; 23 }
 710  002e 81            	ret
 736                     ; 26 void OLED_init(void)
 736                     ; 27 {
 737                     	switch	.text
 738  002f               _OLED_init:
 742                     ; 28      OLED_HW_setup();
 744  002f adfb          	call	_OLED_HW_setup
 746                     ; 29      delay_ms(100);
 748  0031 ae0064        	ldw	x,#100
 749  0034 cd0000        	call	_delay_ms
 751                     ; 31      OLED_write((Set_Display_ON_or_OFF_CMD | Display_OFF), SSD1306_CMD);
 753  0037 aeae00        	ldw	x,#44544
 754  003a cd00d2        	call	_OLED_write
 756                     ; 32      OLED_write(Set_Multiplex_Ratio_CMD, SSD1306_CMD);
 758  003d aea800        	ldw	x,#43008
 759  0040 cd00d2        	call	_OLED_write
 761                     ; 33      OLED_write(0x1F, SSD1306_CMD);
 763  0043 ae1f00        	ldw	x,#7936
 764  0046 cd00d2        	call	_OLED_write
 766                     ; 34      OLED_write(Set_Display_Offset_CMD, SSD1306_CMD);
 768  0049 aed300        	ldw	x,#54016
 769  004c cd00d2        	call	_OLED_write
 771                     ; 35      OLED_write(0x00, SSD1306_CMD);
 773  004f 5f            	clrw	x
 774  0050 cd00d2        	call	_OLED_write
 776                     ; 36      OLED_write(Set_Display_Start_Line_CMD, SSD1306_CMD);
 778  0053 ae4000        	ldw	x,#16384
 779  0056 ad7a          	call	_OLED_write
 781                     ; 37      OLED_write((Set_Segment_Remap_CMD | Column_Address_0_Mapped_to_SEG127), SSD1306_CMD);
 783  0058 aea100        	ldw	x,#41216
 784  005b ad75          	call	_OLED_write
 786                     ; 38      OLED_write((Set_COM_Output_Scan_Direction_CMD | Scan_from_COM63_to_0), SSD1306_CMD);
 788  005d aec800        	ldw	x,#51200
 789  0060 ad70          	call	_OLED_write
 791                     ; 39      OLED_write(Set_Common_HW_Config_CMD, SSD1306_CMD);
 793  0062 aeda00        	ldw	x,#55808
 794  0065 ad6b          	call	_OLED_write
 796                     ; 40      OLED_write(0x02, SSD1306_CMD);
 798  0067 ae0200        	ldw	x,#512
 799  006a ad66          	call	_OLED_write
 801                     ; 41      OLED_write(Set_Contrast_Control_CMD, SSD1306_CMD);
 803  006c ae8100        	ldw	x,#33024
 804  006f ad61          	call	_OLED_write
 806                     ; 42      OLED_write(0x8F, SSD1306_CMD);
 808  0071 ae8f00        	ldw	x,#36608
 809  0074 ad5c          	call	_OLED_write
 811                     ; 43      OLED_write(Set_Entire_Display_ON_CMD, SSD1306_CMD);
 813  0076 aea400        	ldw	x,#41984
 814  0079 ad57          	call	_OLED_write
 816                     ; 44      OLED_write(Set_Normal_or_Inverse_Display_CMD, SSD1306_CMD);
 818  007b aea600        	ldw	x,#42496
 819  007e ad52          	call	_OLED_write
 821                     ; 45      OLED_write(Set_Display_Clock_CMD, SSD1306_CMD);
 823  0080 aed500        	ldw	x,#54528
 824  0083 ad4d          	call	_OLED_write
 826                     ; 46      OLED_write(0x80, SSD1306_CMD);
 828  0085 ae8000        	ldw	x,#32768
 829  0088 ad48          	call	_OLED_write
 831                     ; 47      OLED_write(Set_Pre_charge_Period_CMD, SSD1306_CMD);
 833  008a aed900        	ldw	x,#55552
 834  008d ad43          	call	_OLED_write
 836                     ; 48      OLED_write(0xF1, SSD1306_CMD);
 838  008f aef100        	ldw	x,#61696
 839  0092 ad3e          	call	_OLED_write
 841                     ; 49      OLED_write(Set_VCOMH_Level_CMD, SSD1306_CMD);
 843  0094 aedb00        	ldw	x,#56064
 844  0097 ad39          	call	_OLED_write
 846                     ; 50      OLED_write(0x40, SSD1306_CMD);
 848  0099 ae4000        	ldw	x,#16384
 849  009c ad34          	call	_OLED_write
 851                     ; 51      OLED_write(Set_Page_Address_CMD, SSD1306_CMD);
 853  009e ae2200        	ldw	x,#8704
 854  00a1 ad2f          	call	_OLED_write
 856                     ; 52      OLED_write(0x00, SSD1306_CMD);
 858  00a3 5f            	clrw	x
 859  00a4 ad2c          	call	_OLED_write
 861                     ; 53      OLED_write(0x03, SSD1306_CMD);
 863  00a6 ae0300        	ldw	x,#768
 864  00a9 ad27          	call	_OLED_write
 866                     ; 54      OLED_write(Set_Page_Start_Address_CMD , SSD1306_CMD);
 868  00ab aeb000        	ldw	x,#45056
 869  00ae ad22          	call	_OLED_write
 871                     ; 55      OLED_write(Set_Higher_Column_Start_Address_CMD, SSD1306_CMD);
 873  00b0 ae1000        	ldw	x,#4096
 874  00b3 ad1d          	call	_OLED_write
 876                     ; 56      OLED_write(Set_Lower_Column_Start_Address_CMD, SSD1306_CMD);
 878  00b5 5f            	clrw	x
 879  00b6 ad1a          	call	_OLED_write
 881                     ; 57      OLED_write(Set_Memory_Addressing_Mode_CMD, SSD1306_CMD);
 883  00b8 ae2000        	ldw	x,#8192
 884  00bb ad15          	call	_OLED_write
 886                     ; 58      OLED_write(0x02, SSD1306_CMD);
 888  00bd ae0200        	ldw	x,#512
 889  00c0 ad10          	call	_OLED_write
 891                     ; 59      OLED_write(Set_Charge_Pump_CMD, SSD1306_CMD);
 893  00c2 ae8d00        	ldw	x,#36096
 894  00c5 ad0b          	call	_OLED_write
 896                     ; 60      OLED_write(0x14, SSD1306_CMD);
 898  00c7 ae1400        	ldw	x,#5120
 899  00ca ad06          	call	_OLED_write
 901                     ; 61      OLED_write((Set_Display_ON_or_OFF_CMD | Display_ON), SSD1306_CMD);
 903  00cc aeaf00        	ldw	x,#44800
 904  00cf ad01          	call	_OLED_write
 906                     ; 62 }
 909  00d1 81            	ret
 958                     ; 65 void OLED_write(unsigned char value, unsigned char control_byte)
 958                     ; 66 {
 959                     	switch	.text
 960  00d2               _OLED_write:
 962  00d2 89            	pushw	x
 963       00000000      OFST:	set	0
 966  00d3               L301:
 967                     ; 67     while(I2C_GetFlagStatus(I2C_FLAG_BUSBUSY));
 969  00d3 ae0302        	ldw	x,#770
 970  00d6 cd0000        	call	_I2C_GetFlagStatus
 972  00d9 4d            	tnz	a
 973  00da 26f7          	jrne	L301
 974                     ; 69 	I2C_GenerateSTART(ENABLE);
 976  00dc a601          	ld	a,#1
 977  00de cd0000        	call	_I2C_GenerateSTART
 980  00e1               L111:
 981                     ; 70     while(!I2C_CheckEvent(I2C_EVENT_MASTER_MODE_SELECT));
 983  00e1 ae0301        	ldw	x,#769
 984  00e4 cd0000        	call	_I2C_CheckEvent
 986  00e7 4d            	tnz	a
 987  00e8 27f7          	jreq	L111
 988                     ; 72     I2C_Send7bitAddress(SSD1306_I2C_Address, I2C_DIRECTION_TX); 
 990  00ea ae7800        	ldw	x,#30720
 991  00ed cd0000        	call	_I2C_Send7bitAddress
 994  00f0               L711:
 995                     ; 73     while(!I2C_CheckEvent(I2C_EVENT_MASTER_TRANSMITTER_MODE_SELECTED));
 997  00f0 ae0782        	ldw	x,#1922
 998  00f3 cd0000        	call	_I2C_CheckEvent
1000  00f6 4d            	tnz	a
1001  00f7 27f7          	jreq	L711
1002                     ; 75     I2C_SendData(control_byte);
1004  00f9 7b02          	ld	a,(OFST+2,sp)
1005  00fb cd0000        	call	_I2C_SendData
1008  00fe               L521:
1009                     ; 76     while(!I2C_CheckEvent(I2C_EVENT_MASTER_BYTE_TRANSMITTING));
1011  00fe ae0780        	ldw	x,#1920
1012  0101 cd0000        	call	_I2C_CheckEvent
1014  0104 4d            	tnz	a
1015  0105 27f7          	jreq	L521
1016                     ; 78     I2C_SendData(value);
1018  0107 7b01          	ld	a,(OFST+1,sp)
1019  0109 cd0000        	call	_I2C_SendData
1022  010c               L331:
1023                     ; 79     while(!I2C_CheckEvent(I2C_EVENT_MASTER_BYTE_TRANSMITTED));
1025  010c ae0784        	ldw	x,#1924
1026  010f cd0000        	call	_I2C_CheckEvent
1028  0112 4d            	tnz	a
1029  0113 27f7          	jreq	L331
1030                     ; 81     I2C_GenerateSTOP(ENABLE);  
1032  0115 a601          	ld	a,#1
1033  0117 cd0000        	call	_I2C_GenerateSTOP
1035                     ; 82 }
1038  011a 85            	popw	x
1039  011b 81            	ret
1083                     ; 85 void OLED_gotoxy(unsigned char x_pos, unsigned char y_pos)
1083                     ; 86 {
1084                     	switch	.text
1085  011c               _OLED_gotoxy:
1087  011c 89            	pushw	x
1088       00000000      OFST:	set	0
1091                     ; 87 		 if(y_pos > 3) y_pos = 3;
1093  011d 9f            	ld	a,xl
1094  011e a104          	cp	a,#4
1095  0120 2504          	jrult	L161
1098  0122 a603          	ld	a,#3
1099  0124 6b02          	ld	(OFST+2,sp),a
1100  0126               L161:
1101                     ; 88 		 if(x_pos > 127) x_pos = 127;
1103  0126 7b01          	ld	a,(OFST+1,sp)
1104  0128 a180          	cp	a,#128
1105  012a 2504          	jrult	L361
1108  012c a67f          	ld	a,#127
1109  012e 6b01          	ld	(OFST+1,sp),a
1110  0130               L361:
1111                     ; 89      OLED_write((Set_Page_Start_Address_CMD + y_pos), SSD1306_CMD);
1113  0130 7b02          	ld	a,(OFST+2,sp)
1114  0132 abb0          	add	a,#176
1115  0134 5f            	clrw	x
1116  0135 95            	ld	xh,a
1117  0136 ad9a          	call	_OLED_write
1119                     ; 90      OLED_write(((x_pos & 0x0F) | Set_Lower_Column_Start_Address_CMD), SSD1306_CMD);
1121  0138 7b01          	ld	a,(OFST+1,sp)
1122  013a a40f          	and	a,#15
1123  013c 5f            	clrw	x
1124  013d 95            	ld	xh,a
1125  013e ad92          	call	_OLED_write
1127                     ; 91      OLED_write((((x_pos & 0xF0) >> 0x04) | Set_Higher_Column_Start_Address_CMD), SSD1306_CMD);
1129  0140 7b01          	ld	a,(OFST+1,sp)
1130  0142 4e            	swap	a
1131  0143 a40f          	and	a,#15
1132  0145 aa10          	or	a,#16
1133  0147 5f            	clrw	x
1134  0148 95            	ld	xh,a
1135  0149 ad87          	call	_OLED_write
1137                     ; 92 }
1140  014b 85            	popw	x
1141  014c 81            	ret
1199                     ; 95 void OLED_fill(unsigned char bmp_data)
1199                     ; 96 {
1200                     	switch	.text
1201  014d               _OLED_fill:
1203  014d 88            	push	a
1204  014e 89            	pushw	x
1205       00000002      OFST:	set	2
1208                     ; 97     unsigned char x_pos = 0x00;
1210                     ; 98     unsigned char page = 0x00;
1212                     ; 100     for(page = 0; page < 4; page++)
1214  014f 0f01          	clr	(OFST-1,sp)
1216  0151               L312:
1217                     ; 102         OLED_gotoxy(x_min, page);
1219  0151 7b01          	ld	a,(OFST-1,sp)
1220  0153 5f            	clrw	x
1221  0154 97            	ld	xl,a
1222  0155 adc5          	call	_OLED_gotoxy
1224                     ; 104         I2C_GenerateSTART(ENABLE);
1226  0157 a601          	ld	a,#1
1227  0159 cd0000        	call	_I2C_GenerateSTART
1230  015c               L322:
1231                     ; 105         while(!I2C_CheckEvent(I2C_EVENT_MASTER_MODE_SELECT));
1233  015c ae0301        	ldw	x,#769
1234  015f cd0000        	call	_I2C_CheckEvent
1236  0162 4d            	tnz	a
1237  0163 27f7          	jreq	L322
1238                     ; 107         I2C_Send7bitAddress(SSD1306_I2C_Address, I2C_DIRECTION_TX); 
1240  0165 ae7800        	ldw	x,#30720
1241  0168 cd0000        	call	_I2C_Send7bitAddress
1244  016b               L132:
1245                     ; 108         while(!I2C_CheckEvent(I2C_EVENT_MASTER_TRANSMITTER_MODE_SELECTED));
1247  016b ae0782        	ldw	x,#1922
1248  016e cd0000        	call	_I2C_CheckEvent
1250  0171 4d            	tnz	a
1251  0172 27f7          	jreq	L132
1252                     ; 110         I2C_SendData(SSD1306_DAT);
1254  0174 a660          	ld	a,#96
1255  0176 cd0000        	call	_I2C_SendData
1258  0179               L732:
1259                     ; 111         while(!I2C_CheckEvent(I2C_EVENT_MASTER_BYTE_TRANSMITTING));    
1261  0179 ae0780        	ldw	x,#1920
1262  017c cd0000        	call	_I2C_CheckEvent
1264  017f 4d            	tnz	a
1265  0180 27f7          	jreq	L732
1266                     ; 113         for(x_pos = x_min; x_pos < x_max; x_pos++)
1268  0182 0f02          	clr	(OFST+0,sp)
1270  0184               L342:
1271                     ; 115            I2C_SendData(bmp_data);
1273  0184 7b03          	ld	a,(OFST+1,sp)
1274  0186 cd0000        	call	_I2C_SendData
1277  0189               L352:
1278                     ; 116 		   while(!I2C_CheckEvent(I2C_EVENT_MASTER_BYTE_TRANSMITTED));  
1280  0189 ae0784        	ldw	x,#1924
1281  018c cd0000        	call	_I2C_CheckEvent
1283  018f 4d            	tnz	a
1284  0190 27f7          	jreq	L352
1285                     ; 113         for(x_pos = x_min; x_pos < x_max; x_pos++)
1287  0192 0c02          	inc	(OFST+0,sp)
1291  0194 7b02          	ld	a,(OFST+0,sp)
1292  0196 a180          	cp	a,#128
1293  0198 25ea          	jrult	L342
1294                     ; 119         I2C_GenerateSTOP(ENABLE);  
1296  019a a601          	ld	a,#1
1297  019c cd0000        	call	_I2C_GenerateSTOP
1299                     ; 100     for(page = 0; page < 4; page++)
1301  019f 0c01          	inc	(OFST-1,sp)
1305  01a1 7b01          	ld	a,(OFST-1,sp)
1306  01a3 a104          	cp	a,#4
1307  01a5 25aa          	jrult	L312
1308                     ; 121 }
1311  01a7 5b03          	addw	sp,#3
1312  01a9 81            	ret
1380                     ; 124 void OLED_print_Image(const unsigned char *bmp, unsigned char pixel)
1380                     ; 125 {
1381                     	switch	.text
1382  01aa               _OLED_print_Image:
1384  01aa 89            	pushw	x
1385  01ab 89            	pushw	x
1386       00000002      OFST:	set	2
1389                     ; 126     unsigned char x_pos = 0;
1391                     ; 127     unsigned char page = 0;
1393                     ; 129     if(pixel != OFF)
1395  01ac 0d07          	tnz	(OFST+5,sp)
1396  01ae 2706          	jreq	L113
1397                     ; 131         pixel = 0xFF;
1399  01b0 a6ff          	ld	a,#255
1400  01b2 6b07          	ld	(OFST+5,sp),a
1402  01b4 2002          	jra	L313
1403  01b6               L113:
1404                     ; 135         pixel = 0x00;
1406  01b6 0f07          	clr	(OFST+5,sp)
1407  01b8               L313:
1408                     ; 138     for(page = 0; page < y_max; page++)
1410  01b8 0f01          	clr	(OFST-1,sp)
1412  01ba               L513:
1413                     ; 140          OLED_gotoxy(x_min, page);
1415  01ba 7b01          	ld	a,(OFST-1,sp)
1416  01bc 5f            	clrw	x
1417  01bd 97            	ld	xl,a
1418  01be cd011c        	call	_OLED_gotoxy
1420                     ; 142          I2C_GenerateSTART(ENABLE);
1422  01c1 a601          	ld	a,#1
1423  01c3 cd0000        	call	_I2C_GenerateSTART
1426  01c6               L523:
1427                     ; 143          while(!I2C_CheckEvent(I2C_EVENT_MASTER_MODE_SELECT));
1429  01c6 ae0301        	ldw	x,#769
1430  01c9 cd0000        	call	_I2C_CheckEvent
1432  01cc 4d            	tnz	a
1433  01cd 27f7          	jreq	L523
1434                     ; 145          I2C_Send7bitAddress(SSD1306_I2C_Address, I2C_DIRECTION_TX); 
1436  01cf ae7800        	ldw	x,#30720
1437  01d2 cd0000        	call	_I2C_Send7bitAddress
1440  01d5               L333:
1441                     ; 146          while(!I2C_CheckEvent(I2C_EVENT_MASTER_TRANSMITTER_MODE_SELECTED));
1443  01d5 ae0782        	ldw	x,#1922
1444  01d8 cd0000        	call	_I2C_CheckEvent
1446  01db 4d            	tnz	a
1447  01dc 27f7          	jreq	L333
1448                     ; 148          I2C_SendData(SSD1306_DAT);
1450  01de a660          	ld	a,#96
1451  01e0 cd0000        	call	_I2C_SendData
1454  01e3               L143:
1455                     ; 149          while(!I2C_CheckEvent(I2C_EVENT_MASTER_BYTE_TRANSMITTING));    
1457  01e3 ae0780        	ldw	x,#1920
1458  01e6 cd0000        	call	_I2C_CheckEvent
1460  01e9 4d            	tnz	a
1461  01ea 27f7          	jreq	L143
1462                     ; 151          for(x_pos = x_min; x_pos < x_max; x_pos++)
1464  01ec 0f02          	clr	(OFST+0,sp)
1466  01ee               L543:
1467                     ; 153             I2C_SendData((*bmp++ ^ pixel));
1469  01ee 1e03          	ldw	x,(OFST+1,sp)
1470  01f0 1c0001        	addw	x,#1
1471  01f3 1f03          	ldw	(OFST+1,sp),x
1472  01f5 1d0001        	subw	x,#1
1473  01f8 f6            	ld	a,(x)
1474  01f9 1807          	xor	a,(OFST+5,sp)
1475  01fb cd0000        	call	_I2C_SendData
1478  01fe               L553:
1479                     ; 154             while(!I2C_CheckEvent(I2C_EVENT_MASTER_BYTE_TRANSMITTED));
1481  01fe ae0784        	ldw	x,#1924
1482  0201 cd0000        	call	_I2C_CheckEvent
1484  0204 4d            	tnz	a
1485  0205 27f7          	jreq	L553
1486                     ; 151          for(x_pos = x_min; x_pos < x_max; x_pos++)
1488  0207 0c02          	inc	(OFST+0,sp)
1492  0209 7b02          	ld	a,(OFST+0,sp)
1493  020b a180          	cp	a,#128
1494  020d 25df          	jrult	L543
1495                     ; 157 		 I2C_GenerateSTOP(ENABLE); 
1497  020f a601          	ld	a,#1
1498  0211 cd0000        	call	_I2C_GenerateSTOP
1500                     ; 138     for(page = 0; page < y_max; page++)
1502  0214 0c01          	inc	(OFST-1,sp)
1506  0216 7b01          	ld	a,(OFST-1,sp)
1507  0218 a104          	cp	a,#4
1508  021a 259e          	jrult	L513
1509                     ; 159 }
1512  021c 5b04          	addw	sp,#4
1513  021e 81            	ret
1537                     ; 162 void OLED_clear_screen(void)
1537                     ; 163 {
1538                     	switch	.text
1539  021f               _OLED_clear_screen:
1543                     ; 164     OLED_fill(0x00);
1545  021f 4f            	clr	a
1546  0220 cd014d        	call	_OLED_fill
1548                     ; 165 }
1551  0223 81            	ret
1586                     ; 168 void OLED_clear_buffer(void)
1586                     ; 169 {
1587                     	switch	.text
1588  0224               _OLED_clear_buffer:
1590  0224 89            	pushw	x
1591       00000002      OFST:	set	2
1594                     ; 170      unsigned int s = 0x0000;
1596                     ; 172      for(s = 0; s < buffer_size; s++)
1598  0225 5f            	clrw	x
1599  0226 1f01          	ldw	(OFST-1,sp),x
1601  0228               L704:
1602                     ; 174           buffer[s] = 0x00;
1604  0228 1e01          	ldw	x,(OFST-1,sp)
1605  022a 6f00          	clr	(_buffer,x)
1606                     ; 172      for(s = 0; s < buffer_size; s++)
1608  022c 1e01          	ldw	x,(OFST-1,sp)
1609  022e 1c0001        	addw	x,#1
1610  0231 1f01          	ldw	(OFST-1,sp),x
1614  0233 1e01          	ldw	x,(OFST-1,sp)
1615  0235 a30020        	cpw	x,#32
1616  0238 25ee          	jrult	L704
1617                     ; 176 }
1620  023a 85            	popw	x
1621  023b 81            	ret
1694                     ; 178 void OLED_print_char(unsigned char x_pos, unsigned char y_pos, unsigned char ch)
1694                     ; 179 {
1695                     	switch	.text
1696  023c               _OLED_print_char:
1698  023c 89            	pushw	x
1699  023d 89            	pushw	x
1700       00000002      OFST:	set	2
1703                     ; 180   unsigned char s = 0x00;
1705                     ; 181   unsigned char chr = 0x00;
1707                     ; 183   chr = (ch - 0x20);
1709  023e 7b07          	ld	a,(OFST+5,sp)
1710  0240 a020          	sub	a,#32
1711  0242 6b01          	ld	(OFST-1,sp),a
1713                     ; 185   if(x_pos > (x_max - 0x06))
1715  0244 9e            	ld	a,xh
1716  0245 a17b          	cp	a,#123
1717  0247 250c          	jrult	L354
1718                     ; 187     x_pos = 0x00;
1720  0249 0f03          	clr	(OFST+1,sp)
1721                     ; 188     y_pos++;
1723  024b 0c04          	inc	(OFST+2,sp)
1724                     ; 189 		if(y_pos > 3) y_pos = 0;
1726  024d 7b04          	ld	a,(OFST+2,sp)
1727  024f a104          	cp	a,#4
1728  0251 2502          	jrult	L354
1731  0253 0f04          	clr	(OFST+2,sp)
1732  0255               L354:
1733                     ; 191   OLED_gotoxy(x_pos, y_pos);
1735  0255 7b04          	ld	a,(OFST+2,sp)
1736  0257 97            	ld	xl,a
1737  0258 7b03          	ld	a,(OFST+1,sp)
1738  025a 95            	ld	xh,a
1739  025b cd011c        	call	_OLED_gotoxy
1741                     ; 193   for(s = 0x00; s < 0x06; s++)
1743  025e 0f02          	clr	(OFST+0,sp)
1745  0260               L754:
1746                     ; 195     OLED_write(font_regular[chr][s], SSD1306_DAT);
1748  0260 7b01          	ld	a,(OFST-1,sp)
1749  0262 97            	ld	xl,a
1750  0263 a606          	ld	a,#6
1751  0265 42            	mul	x,a
1752  0266 01            	rrwa	x,a
1753  0267 1b02          	add	a,(OFST+0,sp)
1754  0269 2401          	jrnc	L23
1755  026b 5c            	incw	x
1756  026c               L23:
1757  026c 02            	rlwa	x,a
1758  026d d60000        	ld	a,(L3_font_regular,x)
1759  0270 ae0060        	ldw	x,#96
1760  0273 95            	ld	xh,a
1761  0274 cd00d2        	call	_OLED_write
1763                     ; 193   for(s = 0x00; s < 0x06; s++)
1765  0277 0c02          	inc	(OFST+0,sp)
1769  0279 7b02          	ld	a,(OFST+0,sp)
1770  027b a106          	cp	a,#6
1771  027d 25e1          	jrult	L754
1772                     ; 197 }
1775  027f 5b04          	addw	sp,#4
1776  0281 81            	ret
1830                     ; 200 void OLED_print_string(unsigned char x_pos, unsigned char y_pos, char *ch)
1830                     ; 201 {
1831                     	switch	.text
1832  0282               _OLED_print_string:
1834  0282 89            	pushw	x
1835       00000000      OFST:	set	0
1838  0283               L315:
1839                     ; 204     OLED_print_char(x_pos, y_pos, *ch++);
1841  0283 1e05          	ldw	x,(OFST+5,sp)
1842  0285 1c0001        	addw	x,#1
1843  0288 1f05          	ldw	(OFST+5,sp),x
1844  028a 1d0001        	subw	x,#1
1845  028d f6            	ld	a,(x)
1846  028e 88            	push	a
1847  028f 7b03          	ld	a,(OFST+3,sp)
1848  0291 97            	ld	xl,a
1849  0292 7b02          	ld	a,(OFST+2,sp)
1850  0294 95            	ld	xh,a
1851  0295 ada5          	call	_OLED_print_char
1853  0297 84            	pop	a
1854                     ; 205     x_pos += 0x06;
1856  0298 7b01          	ld	a,(OFST+1,sp)
1857  029a ab06          	add	a,#6
1858  029c 6b01          	ld	(OFST+1,sp),a
1859                     ; 206 		if(x_pos > (x_max - 6) && (*ch != '\0'))
1861  029e 7b01          	ld	a,(OFST+1,sp)
1862  02a0 a17b          	cp	a,#123
1863  02a2 2511          	jrult	L515
1865  02a4 1e05          	ldw	x,(OFST+5,sp)
1866  02a6 7d            	tnz	(x)
1867  02a7 270c          	jreq	L515
1868                     ; 208       x_pos = 0;
1870  02a9 0f01          	clr	(OFST+1,sp)
1871                     ; 209       y_pos++;
1873  02ab 0c02          	inc	(OFST+2,sp)
1874                     ; 210       if(y_pos > 3) y_pos = 0;  // 循環顯示
1876  02ad 7b02          	ld	a,(OFST+2,sp)
1877  02af a104          	cp	a,#4
1878  02b1 2502          	jrult	L515
1881  02b3 0f02          	clr	(OFST+2,sp)
1882  02b5               L515:
1883                     ; 212   }while((*ch >= 0x20) && (*ch <= 0x7F) && (*ch != '\n'));
1885  02b5 1e05          	ldw	x,(OFST+5,sp)
1886  02b7 f6            	ld	a,(x)
1887  02b8 a120          	cp	a,#32
1888  02ba 250e          	jrult	L525
1890  02bc 1e05          	ldw	x,(OFST+5,sp)
1891  02be f6            	ld	a,(x)
1892  02bf a180          	cp	a,#128
1893  02c1 2407          	jruge	L525
1895  02c3 1e05          	ldw	x,(OFST+5,sp)
1896  02c5 f6            	ld	a,(x)
1897  02c6 a10a          	cp	a,#10
1898  02c8 26b9          	jrne	L315
1899  02ca               L525:
1900                     ; 213 }
1903  02ca 85            	popw	x
1904  02cb 81            	ret
1907                     	switch	.const
1908  022c               L135_ch:
1909  022c 20            	dc.b	32
1910  022d 20            	dc.b	32
1911  022e 20            	dc.b	32
1912  022f 20            	dc.b	32
1913  0230 20            	dc.b	32
1914  0231 20            	dc.b	32
1915  0232 00            	dc.b	0
1995                     	switch	.const
1996  0233               L04:
1997  0233 0000000a      	dc.l	10
1998                     ; 216 void OLED_print_int(unsigned char x_pos, unsigned char y_pos, signed long value)
1998                     ; 217 {
1999                     	switch	.text
2000  02cc               _OLED_print_int:
2002  02cc 89            	pushw	x
2003  02cd 520d          	subw	sp,#13
2004       0000000d      OFST:	set	13
2007                     ; 219     char ch[7] = {0x20, 0x20, 0x20, 0x20, 0x20, 0x20, '\0'}; // 移除 \n
2009  02cf 96            	ldw	x,sp
2010  02d0 1c0003        	addw	x,#OFST-10
2011  02d3 90ae022c      	ldw	y,#L135_ch
2012  02d7 a607          	ld	a,#7
2013  02d9 cd0000        	call	c_xymov
2015                     ; 220     char *p = &ch[5];
2017  02dc 96            	ldw	x,sp
2018  02dd 1c0008        	addw	x,#OFST-5
2019  02e0 1f01          	ldw	(OFST-12,sp),x
2021                     ; 223     if(value < 0) {
2023  02e2 9c            	rvf
2024  02e3 9c            	rvf
2025  02e4 0d12          	tnz	(OFST+5,sp)
2026  02e6 2e17          	jrsge	L575
2027                     ; 224         ch[0] = 0x2D;
2029  02e8 a62d          	ld	a,#45
2030  02ea 6b03          	ld	(OFST-10,sp),a
2032                     ; 225         uval = -value;
2034  02ec 96            	ldw	x,sp
2035  02ed 1c0012        	addw	x,#OFST+5
2036  02f0 cd0000        	call	c_ltor
2038  02f3 cd0000        	call	c_lneg
2040  02f6 96            	ldw	x,sp
2041  02f7 1c000a        	addw	x,#OFST-3
2042  02fa cd0000        	call	c_rtol
2046  02fd 200c          	jra	L106
2047  02ff               L575:
2048                     ; 227         ch[0] = 0x20;
2050  02ff a620          	ld	a,#32
2051  0301 6b03          	ld	(OFST-10,sp),a
2053                     ; 228         uval = value;
2055  0303 1e14          	ldw	x,(OFST+7,sp)
2056  0305 1f0c          	ldw	(OFST-1,sp),x
2057  0307 1e12          	ldw	x,(OFST+5,sp)
2058  0309 1f0a          	ldw	(OFST-3,sp),x
2060  030b               L106:
2061                     ; 233         *p-- = (uval % 10) + 0x30;
2063  030b 96            	ldw	x,sp
2064  030c 1c000a        	addw	x,#OFST-3
2065  030f cd0000        	call	c_ltor
2067  0312 ae0233        	ldw	x,#L04
2068  0315 cd0000        	call	c_lumd
2070  0318 a630          	ld	a,#48
2071  031a cd0000        	call	c_ladc
2073  031d 1e01          	ldw	x,(OFST-12,sp)
2074  031f 1d0001        	subw	x,#1
2075  0322 1f01          	ldw	(OFST-12,sp),x
2076  0324 1c0001        	addw	x,#1
2078  0327 b603          	ld	a,c_lreg+3
2079  0329 f7            	ld	(x),a
2080                     ; 234         uval /= 10;
2082  032a 96            	ldw	x,sp
2083  032b 1c000a        	addw	x,#OFST-3
2084  032e cd0000        	call	c_ltor
2086  0331 ae0233        	ldw	x,#L04
2087  0334 cd0000        	call	c_ludv
2089  0337 96            	ldw	x,sp
2090  0338 1c000a        	addw	x,#OFST-3
2091  033b cd0000        	call	c_rtol
2094                     ; 235     } while(uval > 0 && p >= &ch[1]);
2096  033e 96            	ldw	x,sp
2097  033f 1c000a        	addw	x,#OFST-3
2098  0342 cd0000        	call	c_lzmp
2100  0345 270c          	jreq	L706
2102  0347 96            	ldw	x,sp
2103  0348 1c0004        	addw	x,#OFST-9
2104  034b bf00          	ldw	c_x,x
2105  034d 1e01          	ldw	x,(OFST-12,sp)
2106  034f b300          	cpw	x,c_x
2107  0351 24b8          	jruge	L106
2108  0353               L706:
2109                     ; 237     OLED_print_string(x_pos, y_pos, ch);
2111  0353 96            	ldw	x,sp
2112  0354 1c0003        	addw	x,#OFST-10
2113  0357 89            	pushw	x
2114  0358 7b11          	ld	a,(OFST+4,sp)
2115  035a 97            	ld	xl,a
2116  035b 7b10          	ld	a,(OFST+3,sp)
2117  035d 95            	ld	xh,a
2118  035e cd0282        	call	_OLED_print_string
2120  0361 85            	popw	x
2121                     ; 238 }
2124  0362 5b0f          	addw	sp,#15
2125  0364 81            	ret
2207                     ; 240 void Draw_Pixel(unsigned char x_pos, unsigned char y_pos, unsigned char colour)
2207                     ; 241 {
2208                     	switch	.text
2209  0365               _Draw_Pixel:
2211  0365 89            	pushw	x
2212  0366 5203          	subw	sp,#3
2213       00000003      OFST:	set	3
2216                     ; 242     unsigned char value = 0x00;
2218                     ; 243     unsigned char page = 0x00;
2220                     ; 244     unsigned char bit_pos = 0x00;
2222                     ; 246     page = (y_pos / y_max);
2224  0368 9f            	ld	a,xl
2225  0369 44            	srl	a
2226  036a 44            	srl	a
2227  036b 6b03          	ld	(OFST+0,sp),a
2229                     ; 247     bit_pos = (y_pos - (page * y_max));
2231  036d 7b03          	ld	a,(OFST+0,sp)
2232  036f 48            	sll	a
2233  0370 48            	sll	a
2234  0371 1005          	sub	a,(OFST+2,sp)
2235  0373 40            	neg	a
2236  0374 6b01          	ld	(OFST-2,sp),a
2238                     ; 248     value = buffer[((page * x_max) + x_pos)];
2240  0376 7b03          	ld	a,(OFST+0,sp)
2241  0378 97            	ld	xl,a
2242  0379 a680          	ld	a,#128
2243  037b 42            	mul	x,a
2244  037c 01            	rrwa	x,a
2245  037d 1b04          	add	a,(OFST+1,sp)
2246  037f 2401          	jrnc	L44
2247  0381 5c            	incw	x
2248  0382               L44:
2249  0382 02            	rlwa	x,a
2250  0383 e600          	ld	a,(_buffer,x)
2251  0385 6b02          	ld	(OFST-1,sp),a
2253                     ; 250     if((colour & YES) != NO)
2255  0387 7b08          	ld	a,(OFST+5,sp)
2256  0389 a501          	bcp	a,#1
2257  038b 2713          	jreq	L356
2258                     ; 252         value |= (1 << bit_pos);
2260  038d 7b01          	ld	a,(OFST-2,sp)
2261  038f 5f            	clrw	x
2262  0390 97            	ld	xl,a
2263  0391 a601          	ld	a,#1
2264  0393 5d            	tnzw	x
2265  0394 2704          	jreq	L64
2266  0396               L05:
2267  0396 48            	sll	a
2268  0397 5a            	decw	x
2269  0398 26fc          	jrne	L05
2270  039a               L64:
2271  039a 1a02          	or	a,(OFST-1,sp)
2272  039c 6b02          	ld	(OFST-1,sp),a
2275  039e 2012          	jra	L556
2276  03a0               L356:
2277                     ; 256         value &= (~(1 << bit_pos));
2279  03a0 7b01          	ld	a,(OFST-2,sp)
2280  03a2 5f            	clrw	x
2281  03a3 97            	ld	xl,a
2282  03a4 a601          	ld	a,#1
2283  03a6 5d            	tnzw	x
2284  03a7 2704          	jreq	L25
2285  03a9               L45:
2286  03a9 48            	sll	a
2287  03aa 5a            	decw	x
2288  03ab 26fc          	jrne	L45
2289  03ad               L25:
2290  03ad 43            	cpl	a
2291  03ae 1402          	and	a,(OFST-1,sp)
2292  03b0 6b02          	ld	(OFST-1,sp),a
2294  03b2               L556:
2295                     ; 259     buffer[((page * x_max) + x_pos)] = value;
2297  03b2 7b03          	ld	a,(OFST+0,sp)
2298  03b4 97            	ld	xl,a
2299  03b5 a680          	ld	a,#128
2300  03b7 42            	mul	x,a
2301  03b8 01            	rrwa	x,a
2302  03b9 1b04          	add	a,(OFST+1,sp)
2303  03bb 2401          	jrnc	L65
2304  03bd 5c            	incw	x
2305  03be               L65:
2306  03be 02            	rlwa	x,a
2307  03bf 7b02          	ld	a,(OFST-1,sp)
2308  03c1 e700          	ld	(_buffer,x),a
2309                     ; 260     OLED_gotoxy(x_pos, page);
2311  03c3 7b03          	ld	a,(OFST+0,sp)
2312  03c5 97            	ld	xl,a
2313  03c6 7b04          	ld	a,(OFST+1,sp)
2314  03c8 95            	ld	xh,a
2315  03c9 cd011c        	call	_OLED_gotoxy
2317                     ; 261     OLED_write(value, SSD1306_DAT);
2319  03cc 7b02          	ld	a,(OFST-1,sp)
2320  03ce ae0060        	ldw	x,#96
2321  03d1 95            	ld	xh,a
2322  03d2 cd00d2        	call	_OLED_write
2324                     ; 262 }
2327  03d5 5b05          	addw	sp,#5
2328  03d7 81            	ret
2456                     ; 264 void OLED_print_char_2x_tall(unsigned char x_pos, unsigned char y_pos, unsigned char ch)
2456                     ; 265 {
2457                     	switch	.text
2458  03d8               _OLED_print_char_2x_tall:
2460  03d8 89            	pushw	x
2461  03d9 520a          	subw	sp,#10
2462       0000000a      OFST:	set	10
2465                     ; 267     unsigned char s = 0x00;
2467                     ; 268     unsigned char chr = 0x00;
2469                     ; 269     unsigned char temp = 0x00;
2471                     ; 270     unsigned char expanded1 = 0x00, expanded2 = 0x00;
2475                     ; 271     unsigned char expanded3 = 0x00, expanded4 = 0x00;
2479                     ; 272     unsigned char i = 0x00;
2481                     ; 274     chr = (ch - 0x20);
2483  03db 7b0f          	ld	a,(OFST+5,sp)
2484  03dd a020          	sub	a,#32
2485  03df 6b03          	ld	(OFST-7,sp),a
2487                     ; 277     if(x_pos > (x_max - 12))
2489  03e1 9e            	ld	a,xh
2490  03e2 a175          	cp	a,#117
2491  03e4 250e          	jrult	L547
2492                     ; 279         x_pos = 0;
2494  03e6 0f0b          	clr	(OFST+1,sp)
2495                     ; 280         y_pos += 2;  // 移動兩頁
2497  03e8 0c0c          	inc	(OFST+2,sp)
2498  03ea 0c0c          	inc	(OFST+2,sp)
2499                     ; 281         if(y_pos > 1) y_pos = 0;  // 最多顯示2行高字體
2501  03ec 7b0c          	ld	a,(OFST+2,sp)
2502  03ee a102          	cp	a,#2
2503  03f0 2502          	jrult	L547
2506  03f2 0f0c          	clr	(OFST+2,sp)
2507  03f4               L547:
2508                     ; 284     for(s = 0; s < 6; s++)
2510  03f4 0f09          	clr	(OFST-1,sp)
2512  03f6               L157:
2513                     ; 286         temp = font_regular[chr][s];
2515  03f6 7b03          	ld	a,(OFST-7,sp)
2516  03f8 97            	ld	xl,a
2517  03f9 a606          	ld	a,#6
2518  03fb 42            	mul	x,a
2519  03fc 01            	rrwa	x,a
2520  03fd 1b09          	add	a,(OFST-1,sp)
2521  03ff 2401          	jrnc	L26
2522  0401 5c            	incw	x
2523  0402               L26:
2524  0402 02            	rlwa	x,a
2525  0403 d60000        	ld	a,(L3_font_regular,x)
2526  0406 6b08          	ld	(OFST-2,sp),a
2528                     ; 287         expanded1 = 0x00;
2530  0408 0f04          	clr	(OFST-6,sp)
2532                     ; 288         expanded2 = 0x00;
2534  040a 0f05          	clr	(OFST-5,sp)
2536                     ; 289         expanded3 = 0x00;
2538  040c 0f06          	clr	(OFST-4,sp)
2540                     ; 290         expanded4 = 0x00;
2542  040e 0f07          	clr	(OFST-3,sp)
2544                     ; 293         for(i = 0; i < 4; i++)  // 只處理前4位用於上半部分
2546  0410 0f0a          	clr	(OFST+0,sp)
2548  0412               L757:
2549                     ; 295             if(temp & (1 << i))
2551  0412 7b08          	ld	a,(OFST-2,sp)
2552  0414 5f            	clrw	x
2553  0415 97            	ld	xl,a
2554  0416 1f01          	ldw	(OFST-9,sp),x
2556  0418 ae0001        	ldw	x,#1
2557  041b 7b0a          	ld	a,(OFST+0,sp)
2558  041d 4d            	tnz	a
2559  041e 2704          	jreq	L46
2560  0420               L66:
2561  0420 58            	sllw	x
2562  0421 4a            	dec	a
2563  0422 26fc          	jrne	L66
2564  0424               L46:
2565  0424 01            	rrwa	x,a
2566  0425 1402          	and	a,(OFST-8,sp)
2567  0427 01            	rrwa	x,a
2568  0428 1401          	and	a,(OFST-9,sp)
2569  042a 01            	rrwa	x,a
2570  042b a30000        	cpw	x,#0
2571  042e 2724          	jreq	L567
2572                     ; 297                 expanded1 |= (0x03 << (i * 2));
2574  0430 7b0a          	ld	a,(OFST+0,sp)
2575  0432 48            	sll	a
2576  0433 5f            	clrw	x
2577  0434 97            	ld	xl,a
2578  0435 a603          	ld	a,#3
2579  0437 5d            	tnzw	x
2580  0438 2704          	jreq	L07
2581  043a               L27:
2582  043a 48            	sll	a
2583  043b 5a            	decw	x
2584  043c 26fc          	jrne	L27
2585  043e               L07:
2586  043e 1a04          	or	a,(OFST-6,sp)
2587  0440 6b04          	ld	(OFST-6,sp),a
2589                     ; 298                 expanded2 |= (0x03 << (i * 2));
2591  0442 7b0a          	ld	a,(OFST+0,sp)
2592  0444 48            	sll	a
2593  0445 5f            	clrw	x
2594  0446 97            	ld	xl,a
2595  0447 a603          	ld	a,#3
2596  0449 5d            	tnzw	x
2597  044a 2704          	jreq	L47
2598  044c               L67:
2599  044c 48            	sll	a
2600  044d 5a            	decw	x
2601  044e 26fc          	jrne	L67
2602  0450               L47:
2603  0450 1a05          	or	a,(OFST-5,sp)
2604  0452 6b05          	ld	(OFST-5,sp),a
2606  0454               L567:
2607                     ; 293         for(i = 0; i < 4; i++)  // 只處理前4位用於上半部分
2609  0454 0c0a          	inc	(OFST+0,sp)
2613  0456 7b0a          	ld	a,(OFST+0,sp)
2614  0458 a104          	cp	a,#4
2615  045a 25b6          	jrult	L757
2616                     ; 302         for(i = 4; i < 8; i++)  // 處理後4位用於下半部分
2618  045c a604          	ld	a,#4
2619  045e 6b0a          	ld	(OFST+0,sp),a
2621  0460               L767:
2622                     ; 304             if(temp & (1 << i))
2624  0460 7b08          	ld	a,(OFST-2,sp)
2625  0462 5f            	clrw	x
2626  0463 97            	ld	xl,a
2627  0464 1f01          	ldw	(OFST-9,sp),x
2629  0466 ae0001        	ldw	x,#1
2630  0469 7b0a          	ld	a,(OFST+0,sp)
2631  046b 4d            	tnz	a
2632  046c 2704          	jreq	L001
2633  046e               L201:
2634  046e 58            	sllw	x
2635  046f 4a            	dec	a
2636  0470 26fc          	jrne	L201
2637  0472               L001:
2638  0472 01            	rrwa	x,a
2639  0473 1402          	and	a,(OFST-8,sp)
2640  0475 01            	rrwa	x,a
2641  0476 1401          	and	a,(OFST-9,sp)
2642  0478 01            	rrwa	x,a
2643  0479 a30000        	cpw	x,#0
2644  047c 2728          	jreq	L577
2645                     ; 306                 expanded3 |= (0x03 << ((i - 4) * 2));
2647  047e 7b0a          	ld	a,(OFST+0,sp)
2648  0480 48            	sll	a
2649  0481 a008          	sub	a,#8
2650  0483 5f            	clrw	x
2651  0484 97            	ld	xl,a
2652  0485 a603          	ld	a,#3
2653  0487 5d            	tnzw	x
2654  0488 2704          	jreq	L401
2655  048a               L601:
2656  048a 48            	sll	a
2657  048b 5a            	decw	x
2658  048c 26fc          	jrne	L601
2659  048e               L401:
2660  048e 1a06          	or	a,(OFST-4,sp)
2661  0490 6b06          	ld	(OFST-4,sp),a
2663                     ; 307                 expanded4 |= (0x03 << ((i - 4) * 2));
2665  0492 7b0a          	ld	a,(OFST+0,sp)
2666  0494 48            	sll	a
2667  0495 a008          	sub	a,#8
2668  0497 5f            	clrw	x
2669  0498 97            	ld	xl,a
2670  0499 a603          	ld	a,#3
2671  049b 5d            	tnzw	x
2672  049c 2704          	jreq	L011
2673  049e               L211:
2674  049e 48            	sll	a
2675  049f 5a            	decw	x
2676  04a0 26fc          	jrne	L211
2677  04a2               L011:
2678  04a2 1a07          	or	a,(OFST-3,sp)
2679  04a4 6b07          	ld	(OFST-3,sp),a
2681  04a6               L577:
2682                     ; 302         for(i = 4; i < 8; i++)  // 處理後4位用於下半部分
2684  04a6 0c0a          	inc	(OFST+0,sp)
2688  04a8 7b0a          	ld	a,(OFST+0,sp)
2689  04aa a108          	cp	a,#8
2690  04ac 25b2          	jrult	L767
2691                     ; 312         OLED_gotoxy(x_pos + (s * 2), y_pos);
2693  04ae 7b0c          	ld	a,(OFST+2,sp)
2694  04b0 97            	ld	xl,a
2695  04b1 7b09          	ld	a,(OFST-1,sp)
2696  04b3 48            	sll	a
2697  04b4 1b0b          	add	a,(OFST+1,sp)
2698  04b6 95            	ld	xh,a
2699  04b7 cd011c        	call	_OLED_gotoxy
2701                     ; 313         OLED_write(expanded1, SSD1306_DAT);
2703  04ba 7b04          	ld	a,(OFST-6,sp)
2704  04bc ae0060        	ldw	x,#96
2705  04bf 95            	ld	xh,a
2706  04c0 cd00d2        	call	_OLED_write
2708                     ; 314         OLED_write(expanded2, SSD1306_DAT);
2710  04c3 7b05          	ld	a,(OFST-5,sp)
2711  04c5 ae0060        	ldw	x,#96
2712  04c8 95            	ld	xh,a
2713  04c9 cd00d2        	call	_OLED_write
2715                     ; 317         OLED_gotoxy(x_pos + (s * 2), y_pos + 1);
2717  04cc 7b0c          	ld	a,(OFST+2,sp)
2718  04ce 4c            	inc	a
2719  04cf 97            	ld	xl,a
2720  04d0 7b09          	ld	a,(OFST-1,sp)
2721  04d2 48            	sll	a
2722  04d3 1b0b          	add	a,(OFST+1,sp)
2723  04d5 95            	ld	xh,a
2724  04d6 cd011c        	call	_OLED_gotoxy
2726                     ; 318         OLED_write(expanded3, SSD1306_DAT);
2728  04d9 7b06          	ld	a,(OFST-4,sp)
2729  04db ae0060        	ldw	x,#96
2730  04de 95            	ld	xh,a
2731  04df cd00d2        	call	_OLED_write
2733                     ; 319         OLED_write(expanded4, SSD1306_DAT);
2735  04e2 7b07          	ld	a,(OFST-3,sp)
2736  04e4 ae0060        	ldw	x,#96
2737  04e7 95            	ld	xh,a
2738  04e8 cd00d2        	call	_OLED_write
2740                     ; 284     for(s = 0; s < 6; s++)
2742  04eb 0c09          	inc	(OFST-1,sp)
2746  04ed 7b09          	ld	a,(OFST-1,sp)
2747  04ef a106          	cp	a,#6
2748  04f1 2403          	jruge	L411
2749  04f3 cc03f6        	jp	L157
2750  04f6               L411:
2751                     ; 321 }
2754  04f6 5b0c          	addw	sp,#12
2755  04f8 81            	ret
2811                     ; 323 void OLED_print_string_2x_correct(unsigned char x_pos, unsigned char y_pos, char *ch)
2811                     ; 324 {
2812                     	switch	.text
2813  04f9               _OLED_print_string_2x_correct:
2815  04f9 89            	pushw	x
2816       00000000      OFST:	set	0
2819  04fa               L5201:
2820                     ; 327         OLED_print_char_2x_tall(x_pos, y_pos, *ch++);
2822  04fa 1e05          	ldw	x,(OFST+5,sp)
2823  04fc 1c0001        	addw	x,#1
2824  04ff 1f05          	ldw	(OFST+5,sp),x
2825  0501 1d0001        	subw	x,#1
2826  0504 f6            	ld	a,(x)
2827  0505 88            	push	a
2828  0506 7b03          	ld	a,(OFST+3,sp)
2829  0508 97            	ld	xl,a
2830  0509 7b02          	ld	a,(OFST+2,sp)
2831  050b 95            	ld	xh,a
2832  050c cd03d8        	call	_OLED_print_char_2x_tall
2834  050f 84            	pop	a
2835                     ; 328         x_pos += 12;  // 2倍字體寬度
2837  0510 7b01          	ld	a,(OFST+1,sp)
2838  0512 ab0c          	add	a,#12
2839  0514 6b01          	ld	(OFST+1,sp),a
2840                     ; 331         if(x_pos > (x_max - 12) && (*ch != '\0'))
2842  0516 7b01          	ld	a,(OFST+1,sp)
2843  0518 a175          	cp	a,#117
2844  051a 2514          	jrult	L7201
2846  051c 1e05          	ldw	x,(OFST+5,sp)
2847  051e 7d            	tnz	(x)
2848  051f 270f          	jreq	L7201
2849                     ; 333             x_pos = 0;
2851  0521 0f01          	clr	(OFST+1,sp)
2852                     ; 334             y_pos++;  // 只移動到下一頁
2854  0523 0c02          	inc	(OFST+2,sp)
2855                     ; 335             if(y_pos > 3) 
2857  0525 7b02          	ld	a,(OFST+2,sp)
2858  0527 a104          	cp	a,#4
2859  0529 2505          	jrult	L7201
2860                     ; 337                 y_pos = 0;
2862  052b 0f02          	clr	(OFST+2,sp)
2863                     ; 338                 OLED_clear_screen();
2865  052d cd021f        	call	_OLED_clear_screen
2867  0530               L7201:
2868                     ; 341     }while((*ch >= 0x20) && (*ch <= 0x7F));
2870  0530 1e05          	ldw	x,(OFST+5,sp)
2871  0532 f6            	ld	a,(x)
2872  0533 a120          	cp	a,#32
2873  0535 2507          	jrult	L7301
2875  0537 1e05          	ldw	x,(OFST+5,sp)
2876  0539 f6            	ld	a,(x)
2877  053a a180          	cp	a,#128
2878  053c 25bc          	jrult	L5201
2879  053e               L7301:
2880                     ; 342 }
2883  053e 85            	popw	x
2884  053f 81            	ret
2887                     	switch	.const
2888  0237               L1401_ch:
2889  0237 20            	dc.b	32
2890  0238 20            	dc.b	32
2891  0239 20            	dc.b	32
2892  023a 20            	dc.b	32
2893  023b 20            	dc.b	32
2894  023c 20            	dc.b	32
2895  023d 00            	dc.b	0
2975                     ; 344 void OLED_print_int_2x(unsigned char x_pos, unsigned char y_pos, signed long value)
2975                     ; 345 {
2976                     	switch	.text
2977  0540               _OLED_print_int_2x:
2979  0540 89            	pushw	x
2980  0541 520d          	subw	sp,#13
2981       0000000d      OFST:	set	13
2984                     ; 346     char ch[7] = {0x20, 0x20, 0x20, 0x20, 0x20, 0x20, '\0'};
2986  0543 96            	ldw	x,sp
2987  0544 1c0003        	addw	x,#OFST-10
2988  0547 90ae0237      	ldw	y,#L1401_ch
2989  054b a607          	ld	a,#7
2990  054d cd0000        	call	c_xymov
2992                     ; 347     char *p = &ch[5];
2994  0550 96            	ldw	x,sp
2995  0551 1c0008        	addw	x,#OFST-5
2996  0554 1f01          	ldw	(OFST-12,sp),x
2998                     ; 350     if(value < 0) {
3000  0556 9c            	rvf
3001  0557 9c            	rvf
3002  0558 0d12          	tnz	(OFST+5,sp)
3003  055a 2e17          	jrsge	L5011
3004                     ; 351         ch[0] = 0x2D;  // 負號 '-'
3006  055c a62d          	ld	a,#45
3007  055e 6b03          	ld	(OFST-10,sp),a
3009                     ; 352         uval = -value;
3011  0560 96            	ldw	x,sp
3012  0561 1c0012        	addw	x,#OFST+5
3013  0564 cd0000        	call	c_ltor
3015  0567 cd0000        	call	c_lneg
3017  056a 96            	ldw	x,sp
3018  056b 1c000a        	addw	x,#OFST-3
3019  056e cd0000        	call	c_rtol
3023  0571 200c          	jra	L1111
3024  0573               L5011:
3025                     ; 354         ch[0] = 0x20;  // 空格
3027  0573 a620          	ld	a,#32
3028  0575 6b03          	ld	(OFST-10,sp),a
3030                     ; 355         uval = value;
3032  0577 1e14          	ldw	x,(OFST+7,sp)
3033  0579 1f0c          	ldw	(OFST-1,sp),x
3034  057b 1e12          	ldw	x,(OFST+5,sp)
3035  057d 1f0a          	ldw	(OFST-3,sp),x
3037  057f               L1111:
3038                     ; 360         *p-- = (uval % 10) + 0x30;  // 轉為 ASCII
3040  057f 96            	ldw	x,sp
3041  0580 1c000a        	addw	x,#OFST-3
3042  0583 cd0000        	call	c_ltor
3044  0586 ae0233        	ldw	x,#L04
3045  0589 cd0000        	call	c_lumd
3047  058c a630          	ld	a,#48
3048  058e cd0000        	call	c_ladc
3050  0591 1e01          	ldw	x,(OFST-12,sp)
3051  0593 1d0001        	subw	x,#1
3052  0596 1f01          	ldw	(OFST-12,sp),x
3053  0598 1c0001        	addw	x,#1
3055  059b b603          	ld	a,c_lreg+3
3056  059d f7            	ld	(x),a
3057                     ; 361         uval /= 10;
3059  059e 96            	ldw	x,sp
3060  059f 1c000a        	addw	x,#OFST-3
3061  05a2 cd0000        	call	c_ltor
3063  05a5 ae0233        	ldw	x,#L04
3064  05a8 cd0000        	call	c_ludv
3066  05ab 96            	ldw	x,sp
3067  05ac 1c000a        	addw	x,#OFST-3
3068  05af cd0000        	call	c_rtol
3071                     ; 362     } while(uval > 0 && p >= &ch[1]);
3073  05b2 96            	ldw	x,sp
3074  05b3 1c000a        	addw	x,#OFST-3
3075  05b6 cd0000        	call	c_lzmp
3077  05b9 270c          	jreq	L7111
3079  05bb 96            	ldw	x,sp
3080  05bc 1c0004        	addw	x,#OFST-9
3081  05bf bf00          	ldw	c_x,x
3082  05c1 1e01          	ldw	x,(OFST-12,sp)
3083  05c3 b300          	cpw	x,c_x
3084  05c5 24b8          	jruge	L1111
3085  05c7               L7111:
3086                     ; 365     OLED_print_string_2x_correct(x_pos, y_pos, ch);
3088  05c7 96            	ldw	x,sp
3089  05c8 1c0003        	addw	x,#OFST-10
3090  05cb 89            	pushw	x
3091  05cc 7b11          	ld	a,(OFST+4,sp)
3092  05ce 97            	ld	xl,a
3093  05cf 7b10          	ld	a,(OFST+3,sp)
3094  05d1 95            	ld	xh,a
3095  05d2 cd04f9        	call	_OLED_print_string_2x_correct
3097  05d5 85            	popw	x
3098                     ; 366 }
3101  05d6 5b0f          	addw	sp,#15
3102  05d8 81            	ret
3105                     	switch	.ubsct
3106  0000               L1211_ch:
3107  0000 000000000000  	ds.b	6
3179                     ; 368 void OLED_print_uint16_2x(unsigned char x_pos, unsigned char y_pos, uint16_t value)
3179                     ; 369 {
3180                     	switch	.text
3181  05d9               _OLED_print_uint16_2x:
3183  05d9 89            	pushw	x
3184  05da 89            	pushw	x
3185       00000002      OFST:	set	2
3188                     ; 371     char *p = &ch[4];
3190  05db ae0004        	ldw	x,#L1211_ch+4
3191  05de 1f01          	ldw	(OFST-1,sp),x
3193                     ; 374     ch[0] = ch[1] = ch[2] = ch[3] = ch[4] = 0x20;
3195  05e0 35200004      	mov	L1211_ch+4,#32
3196  05e4 450403        	mov	L1211_ch+3,L1211_ch+4
3197  05e7 450302        	mov	L1211_ch+2,L1211_ch+3
3198  05ea 450201        	mov	L1211_ch+1,L1211_ch+2
3199  05ed 450100        	mov	L1211_ch,L1211_ch+1
3200                     ; 375     ch[5] = '\0';
3202  05f0 3f05          	clr	L1211_ch+5
3203                     ; 378     if(value == 0) {
3205  05f2 1e07          	ldw	x,(OFST+5,sp)
3206  05f4 2606          	jrne	L5611
3207                     ; 379         ch[4] = '0';
3209  05f6 35300004      	mov	L1211_ch+4,#48
3211  05fa 2025          	jra	L3611
3212  05fc               L5611:
3213                     ; 382             *p-- = (value % 10) + 0x30;
3215  05fc 1e07          	ldw	x,(OFST+5,sp)
3216  05fe a60a          	ld	a,#10
3217  0600 62            	div	x,a
3218  0601 5f            	clrw	x
3219  0602 97            	ld	xl,a
3220  0603 1c0030        	addw	x,#48
3221  0606 1601          	ldw	y,(OFST-1,sp)
3222  0608 72a20001      	subw	y,#1
3223  060c 1701          	ldw	(OFST-1,sp),y
3224  060e 72a90001      	addw	y,#1
3226  0612 01            	rrwa	x,a
3227  0613 90f7          	ld	(y),a
3228  0615 02            	rlwa	x,a
3229                     ; 383             value /= 10;
3231  0616 1e07          	ldw	x,(OFST+5,sp)
3232  0618 a60a          	ld	a,#10
3233  061a 62            	div	x,a
3234  061b 1f07          	ldw	(OFST+5,sp),x
3235                     ; 384         } while(value > 0);
3237  061d 1e07          	ldw	x,(OFST+5,sp)
3238  061f 26db          	jrne	L5611
3239  0621               L3611:
3240                     ; 387     OLED_print_string_2x_correct(x_pos, y_pos, ch);
3242  0621 ae0000        	ldw	x,#L1211_ch
3243  0624 89            	pushw	x
3244  0625 7b06          	ld	a,(OFST+4,sp)
3245  0627 97            	ld	xl,a
3246  0628 7b05          	ld	a,(OFST+3,sp)
3247  062a 95            	ld	xh,a
3248  062b cd04f9        	call	_OLED_print_string_2x_correct
3250  062e 85            	popw	x
3251                     ; 388 }
3254  062f 5b04          	addw	sp,#4
3255  0631 81            	ret
3305                     ; 389 void OLED_clear_value_area(void)
3305                     ; 390 {
3306                     	switch	.text
3307  0632               _OLED_clear_value_area:
3309  0632 89            	pushw	x
3310       00000002      OFST:	set	2
3313                     ; 394     for(page = 2; page < 4; page++)
3315  0633 a602          	ld	a,#2
3316  0635 6b01          	ld	(OFST-1,sp),a
3318  0637               L5121:
3319                     ; 396         OLED_gotoxy(0, page);
3321  0637 7b01          	ld	a,(OFST-1,sp)
3322  0639 5f            	clrw	x
3323  063a 97            	ld	xl,a
3324  063b cd011c        	call	_OLED_gotoxy
3326                     ; 398         I2C_GenerateSTART(ENABLE);
3328  063e a601          	ld	a,#1
3329  0640 cd0000        	call	_I2C_GenerateSTART
3332  0643               L5221:
3333                     ; 399         while(!I2C_CheckEvent(I2C_EVENT_MASTER_MODE_SELECT));
3335  0643 ae0301        	ldw	x,#769
3336  0646 cd0000        	call	_I2C_CheckEvent
3338  0649 4d            	tnz	a
3339  064a 27f7          	jreq	L5221
3340                     ; 401         I2C_Send7bitAddress(SSD1306_I2C_Address, I2C_DIRECTION_TX); 
3342  064c ae7800        	ldw	x,#30720
3343  064f cd0000        	call	_I2C_Send7bitAddress
3346  0652               L3321:
3347                     ; 402         while(!I2C_CheckEvent(I2C_EVENT_MASTER_TRANSMITTER_MODE_SELECTED));
3349  0652 ae0782        	ldw	x,#1922
3350  0655 cd0000        	call	_I2C_CheckEvent
3352  0658 4d            	tnz	a
3353  0659 27f7          	jreq	L3321
3354                     ; 404         I2C_SendData(SSD1306_DAT);
3356  065b a660          	ld	a,#96
3357  065d cd0000        	call	_I2C_SendData
3360  0660               L1421:
3361                     ; 405         while(!I2C_CheckEvent(I2C_EVENT_MASTER_BYTE_TRANSMITTING));    
3363  0660 ae0780        	ldw	x,#1920
3364  0663 cd0000        	call	_I2C_CheckEvent
3366  0666 4d            	tnz	a
3367  0667 27f7          	jreq	L1421
3368                     ; 407         for(x = 0; x < x_max; x++)
3370  0669 0f02          	clr	(OFST+0,sp)
3372  066b               L5421:
3373                     ; 409            I2C_SendData(0x00);
3375  066b 4f            	clr	a
3376  066c cd0000        	call	_I2C_SendData
3379  066f               L5521:
3380                     ; 410            while(!I2C_CheckEvent(I2C_EVENT_MASTER_BYTE_TRANSMITTED));  
3382  066f ae0784        	ldw	x,#1924
3383  0672 cd0000        	call	_I2C_CheckEvent
3385  0675 4d            	tnz	a
3386  0676 27f7          	jreq	L5521
3387                     ; 407         for(x = 0; x < x_max; x++)
3389  0678 0c02          	inc	(OFST+0,sp)
3393  067a 7b02          	ld	a,(OFST+0,sp)
3394  067c a180          	cp	a,#128
3395  067e 25eb          	jrult	L5421
3396                     ; 413         I2C_GenerateSTOP(ENABLE);  
3398  0680 a601          	ld	a,#1
3399  0682 cd0000        	call	_I2C_GenerateSTOP
3401                     ; 394     for(page = 2; page < 4; page++)
3403  0685 0c01          	inc	(OFST-1,sp)
3407  0687 7b01          	ld	a,(OFST-1,sp)
3408  0689 a104          	cp	a,#4
3409  068b 25aa          	jrult	L5121
3410                     ; 415 }
3413  068d 85            	popw	x
3414  068e 81            	ret
3427                     	xdef	_OLED_clear_value_area
3428                     	xdef	_OLED_print_uint16_2x
3429                     	xdef	_OLED_print_int_2x
3430                     	xdef	_OLED_print_string_2x_correct
3431                     	xdef	_OLED_print_char_2x_tall
3432                     	xdef	_Draw_Pixel
3433                     	xdef	_OLED_print_int
3434                     	xdef	_OLED_print_string
3435                     	xdef	_OLED_print_char
3436                     	xdef	_OLED_clear_buffer
3437                     	xdef	_OLED_clear_screen
3438                     	xdef	_OLED_print_Image
3439                     	xdef	_OLED_fill
3440                     	xdef	_OLED_gotoxy
3441                     	xdef	_OLED_write
3442                     	xdef	_OLED_init
3443                     	xdef	_OLED_HW_setup
3444                     	xdef	_I2C_setup
3445                     	xref.b	_buffer
3446                     	xref	_I2C_GetFlagStatus
3447                     	xref	_I2C_CheckEvent
3448                     	xref	_I2C_SendData
3449                     	xref	_I2C_Send7bitAddress
3450                     	xref	_I2C_GenerateSTOP
3451                     	xref	_I2C_GenerateSTART
3452                     	xref	_I2C_Cmd
3453                     	xref	_I2C_Init
3454                     	xref	_I2C_DeInit
3455                     	xref	_CLK_GetClockFreq
3456                     	xref	_delay_ms
3457                     	xref.b	c_lreg
3458                     	xref.b	c_x
3477                     	xref	c_lzmp
3478                     	xref	c_ladc
3479                     	xref	c_lumd
3480                     	xref	c_rtol
3481                     	xref	c_lneg
3482                     	xref	c_ltor
3483                     	xref	c_xymov
3484                     	xref	c_ludv
3485                     	end
