   1                     ; C Compiler for STM8 (COSMIC Software)
   2                     ; Parser V4.12.6 - 16 Dec 2021
   3                     ; Generator (Limited) V4.5.4 - 16 Dec 2021
  14                     .const:	section	.text
  15  0000               L3_font_regular:
  16  0000 00            	dc.b	0
  17  0001 00            	dc.b	0
  18  0002 00            	dc.b	0
  19  0003 00            	dc.b	0
  20  0004 00            	dc.b	0
  21  0005 00            	dc.b	0
  22  0006 00            	dc.b	0
  23  0007 00            	dc.b	0
  24  0008 00            	dc.b	0
  25  0009 2f            	dc.b	47
  26  000a 00            	dc.b	0
  27  000b 00            	dc.b	0
  28  000c 00            	dc.b	0
  29  000d 00            	dc.b	0
  30  000e 07            	dc.b	7
  31  000f 00            	dc.b	0
  32  0010 07            	dc.b	7
  33  0011 00            	dc.b	0
  34  0012 00            	dc.b	0
  35  0013 14            	dc.b	20
  36  0014 7f            	dc.b	127
  37  0015 14            	dc.b	20
  38  0016 7f            	dc.b	127
  39  0017 14            	dc.b	20
  40  0018 00            	dc.b	0
  41  0019 24            	dc.b	36
  42  001a 2a            	dc.b	42
  43  001b 7f            	dc.b	127
  44  001c 2a            	dc.b	42
  45  001d 12            	dc.b	18
  46  001e 00            	dc.b	0
  47  001f 62            	dc.b	98
  48  0020 64            	dc.b	100
  49  0021 08            	dc.b	8
  50  0022 13            	dc.b	19
  51  0023 23            	dc.b	35
  52  0024 00            	dc.b	0
  53  0025 36            	dc.b	54
  54  0026 49            	dc.b	73
  55  0027 55            	dc.b	85
  56  0028 22            	dc.b	34
  57  0029 50            	dc.b	80
  58  002a 00            	dc.b	0
  59  002b 00            	dc.b	0
  60  002c 05            	dc.b	5
  61  002d 03            	dc.b	3
  62  002e 00            	dc.b	0
  63  002f 00            	dc.b	0
  64  0030 00            	dc.b	0
  65  0031 00            	dc.b	0
  66  0032 1c            	dc.b	28
  67  0033 22            	dc.b	34
  68  0034 41            	dc.b	65
  69  0035 00            	dc.b	0
  70  0036 00            	dc.b	0
  71  0037 00            	dc.b	0
  72  0038 41            	dc.b	65
  73  0039 22            	dc.b	34
  74  003a 1c            	dc.b	28
  75  003b 00            	dc.b	0
  76  003c 00            	dc.b	0
  77  003d 14            	dc.b	20
  78  003e 08            	dc.b	8
  79  003f 3e            	dc.b	62
  80  0040 08            	dc.b	8
  81  0041 14            	dc.b	20
  82  0042 00            	dc.b	0
  83  0043 08            	dc.b	8
  84  0044 08            	dc.b	8
  85  0045 3e            	dc.b	62
  86  0046 08            	dc.b	8
  87  0047 08            	dc.b	8
  88  0048 00            	dc.b	0
  89  0049 00            	dc.b	0
  90  004a 00            	dc.b	0
  91  004b a0            	dc.b	160
  92  004c 60            	dc.b	96
  93  004d 00            	dc.b	0
  94  004e 00            	dc.b	0
  95  004f 08            	dc.b	8
  96  0050 08            	dc.b	8
  97  0051 08            	dc.b	8
  98  0052 08            	dc.b	8
  99  0053 08            	dc.b	8
 100  0054 00            	dc.b	0
 101  0055 00            	dc.b	0
 102  0056 60            	dc.b	96
 103  0057 60            	dc.b	96
 104  0058 00            	dc.b	0
 105  0059 00            	dc.b	0
 106  005a 00            	dc.b	0
 107  005b 20            	dc.b	32
 108  005c 10            	dc.b	16
 109  005d 08            	dc.b	8
 110  005e 04            	dc.b	4
 111  005f 02            	dc.b	2
 112  0060 00            	dc.b	0
 113  0061 3e            	dc.b	62
 114  0062 51            	dc.b	81
 115  0063 49            	dc.b	73
 116  0064 45            	dc.b	69
 117  0065 3e            	dc.b	62
 118  0066 00            	dc.b	0
 119  0067 00            	dc.b	0
 120  0068 42            	dc.b	66
 121  0069 7f            	dc.b	127
 122  006a 40            	dc.b	64
 123  006b 00            	dc.b	0
 124  006c 00            	dc.b	0
 125  006d 42            	dc.b	66
 126  006e 61            	dc.b	97
 127  006f 51            	dc.b	81
 128  0070 49            	dc.b	73
 129  0071 46            	dc.b	70
 130  0072 00            	dc.b	0
 131  0073 21            	dc.b	33
 132  0074 41            	dc.b	65
 133  0075 45            	dc.b	69
 134  0076 4b            	dc.b	75
 135  0077 31            	dc.b	49
 136  0078 00            	dc.b	0
 137  0079 18            	dc.b	24
 138  007a 14            	dc.b	20
 139  007b 12            	dc.b	18
 140  007c 7f            	dc.b	127
 141  007d 10            	dc.b	16
 142  007e 00            	dc.b	0
 143  007f 27            	dc.b	39
 144  0080 45            	dc.b	69
 145  0081 45            	dc.b	69
 146  0082 45            	dc.b	69
 147  0083 39            	dc.b	57
 148  0084 00            	dc.b	0
 149  0085 3c            	dc.b	60
 150  0086 4a            	dc.b	74
 151  0087 49            	dc.b	73
 152  0088 49            	dc.b	73
 153  0089 30            	dc.b	48
 154  008a 00            	dc.b	0
 155  008b 01            	dc.b	1
 156  008c 71            	dc.b	113
 157  008d 09            	dc.b	9
 158  008e 05            	dc.b	5
 159  008f 03            	dc.b	3
 160  0090 00            	dc.b	0
 161  0091 36            	dc.b	54
 162  0092 49            	dc.b	73
 163  0093 49            	dc.b	73
 164  0094 49            	dc.b	73
 165  0095 36            	dc.b	54
 166  0096 00            	dc.b	0
 167  0097 06            	dc.b	6
 168  0098 49            	dc.b	73
 169  0099 49            	dc.b	73
 170  009a 29            	dc.b	41
 171  009b 1e            	dc.b	30
 172  009c 00            	dc.b	0
 173  009d 00            	dc.b	0
 174  009e 36            	dc.b	54
 175  009f 36            	dc.b	54
 176  00a0 00            	dc.b	0
 177  00a1 00            	dc.b	0
 178  00a2 00            	dc.b	0
 179  00a3 00            	dc.b	0
 180  00a4 56            	dc.b	86
 181  00a5 36            	dc.b	54
 182  00a6 00            	dc.b	0
 183  00a7 00            	dc.b	0
 184  00a8 00            	dc.b	0
 185  00a9 08            	dc.b	8
 186  00aa 14            	dc.b	20
 187  00ab 22            	dc.b	34
 188  00ac 41            	dc.b	65
 189  00ad 00            	dc.b	0
 190  00ae 00            	dc.b	0
 191  00af 14            	dc.b	20
 192  00b0 14            	dc.b	20
 193  00b1 14            	dc.b	20
 194  00b2 14            	dc.b	20
 195  00b3 14            	dc.b	20
 196  00b4 00            	dc.b	0
 197  00b5 00            	dc.b	0
 198  00b6 41            	dc.b	65
 199  00b7 22            	dc.b	34
 200  00b8 14            	dc.b	20
 201  00b9 08            	dc.b	8
 202  00ba 00            	dc.b	0
 203  00bb 02            	dc.b	2
 204  00bc 01            	dc.b	1
 205  00bd 51            	dc.b	81
 206  00be 09            	dc.b	9
 207  00bf 06            	dc.b	6
 208  00c0 00            	dc.b	0
 209  00c1 32            	dc.b	50
 210  00c2 49            	dc.b	73
 211  00c3 59            	dc.b	89
 212  00c4 51            	dc.b	81
 213  00c5 3e            	dc.b	62
 214  00c6 00            	dc.b	0
 215  00c7 7c            	dc.b	124
 216  00c8 12            	dc.b	18
 217  00c9 11            	dc.b	17
 218  00ca 12            	dc.b	18
 219  00cb 7c            	dc.b	124
 220  00cc 00            	dc.b	0
 221  00cd 7f            	dc.b	127
 222  00ce 49            	dc.b	73
 223  00cf 49            	dc.b	73
 224  00d0 49            	dc.b	73
 225  00d1 36            	dc.b	54
 226  00d2 00            	dc.b	0
 227  00d3 3e            	dc.b	62
 228  00d4 41            	dc.b	65
 229  00d5 41            	dc.b	65
 230  00d6 41            	dc.b	65
 231  00d7 22            	dc.b	34
 232  00d8 00            	dc.b	0
 233  00d9 7f            	dc.b	127
 234  00da 41            	dc.b	65
 235  00db 41            	dc.b	65
 236  00dc 22            	dc.b	34
 237  00dd 1c            	dc.b	28
 238  00de 00            	dc.b	0
 239  00df 7f            	dc.b	127
 240  00e0 49            	dc.b	73
 241  00e1 49            	dc.b	73
 242  00e2 49            	dc.b	73
 243  00e3 41            	dc.b	65
 244  00e4 00            	dc.b	0
 245  00e5 7f            	dc.b	127
 246  00e6 09            	dc.b	9
 247  00e7 09            	dc.b	9
 248  00e8 09            	dc.b	9
 249  00e9 01            	dc.b	1
 250  00ea 00            	dc.b	0
 251  00eb 3e            	dc.b	62
 252  00ec 41            	dc.b	65
 253  00ed 49            	dc.b	73
 254  00ee 49            	dc.b	73
 255  00ef 7a            	dc.b	122
 256  00f0 00            	dc.b	0
 257  00f1 7f            	dc.b	127
 258  00f2 08            	dc.b	8
 259  00f3 08            	dc.b	8
 260  00f4 08            	dc.b	8
 261  00f5 7f            	dc.b	127
 262  00f6 00            	dc.b	0
 263  00f7 00            	dc.b	0
 264  00f8 41            	dc.b	65
 265  00f9 7f            	dc.b	127
 266  00fa 41            	dc.b	65
 267  00fb 00            	dc.b	0
 268  00fc 00            	dc.b	0
 269  00fd 20            	dc.b	32
 270  00fe 40            	dc.b	64
 271  00ff 41            	dc.b	65
 272  0100 3f            	dc.b	63
 273  0101 01            	dc.b	1
 274  0102 00            	dc.b	0
 275  0103 7f            	dc.b	127
 276  0104 08            	dc.b	8
 277  0105 14            	dc.b	20
 278  0106 22            	dc.b	34
 279  0107 41            	dc.b	65
 280  0108 00            	dc.b	0
 281  0109 7f            	dc.b	127
 282  010a 40            	dc.b	64
 283  010b 40            	dc.b	64
 284  010c 40            	dc.b	64
 285  010d 40            	dc.b	64
 286  010e 00            	dc.b	0
 287  010f 7f            	dc.b	127
 288  0110 02            	dc.b	2
 289  0111 0c            	dc.b	12
 290  0112 02            	dc.b	2
 291  0113 7f            	dc.b	127
 292  0114 00            	dc.b	0
 293  0115 7f            	dc.b	127
 294  0116 04            	dc.b	4
 295  0117 08            	dc.b	8
 296  0118 10            	dc.b	16
 297  0119 7f            	dc.b	127
 298  011a 00            	dc.b	0
 299  011b 3e            	dc.b	62
 300  011c 41            	dc.b	65
 301  011d 41            	dc.b	65
 302  011e 41            	dc.b	65
 303  011f 3e            	dc.b	62
 304  0120 00            	dc.b	0
 305  0121 7f            	dc.b	127
 306  0122 09            	dc.b	9
 307  0123 09            	dc.b	9
 308  0124 09            	dc.b	9
 309  0125 06            	dc.b	6
 310  0126 00            	dc.b	0
 311  0127 3e            	dc.b	62
 312  0128 41            	dc.b	65
 313  0129 51            	dc.b	81
 314  012a 21            	dc.b	33
 315  012b 5e            	dc.b	94
 316  012c 00            	dc.b	0
 317  012d 7f            	dc.b	127
 318  012e 09            	dc.b	9
 319  012f 19            	dc.b	25
 320  0130 29            	dc.b	41
 321  0131 46            	dc.b	70
 322  0132 00            	dc.b	0
 323  0133 46            	dc.b	70
 324  0134 49            	dc.b	73
 325  0135 49            	dc.b	73
 326  0136 49            	dc.b	73
 327  0137 31            	dc.b	49
 328  0138 00            	dc.b	0
 329  0139 01            	dc.b	1
 330  013a 01            	dc.b	1
 331  013b 7f            	dc.b	127
 332  013c 01            	dc.b	1
 333  013d 01            	dc.b	1
 334  013e 00            	dc.b	0
 335  013f 3f            	dc.b	63
 336  0140 40            	dc.b	64
 337  0141 40            	dc.b	64
 338  0142 40            	dc.b	64
 339  0143 3f            	dc.b	63
 340  0144 00            	dc.b	0
 341  0145 1f            	dc.b	31
 342  0146 20            	dc.b	32
 343  0147 40            	dc.b	64
 344  0148 20            	dc.b	32
 345  0149 1f            	dc.b	31
 346  014a 00            	dc.b	0
 347  014b 3f            	dc.b	63
 348  014c 40            	dc.b	64
 349  014d 38            	dc.b	56
 350  014e 40            	dc.b	64
 351  014f 3f            	dc.b	63
 352  0150 00            	dc.b	0
 353  0151 63            	dc.b	99
 354  0152 14            	dc.b	20
 355  0153 08            	dc.b	8
 356  0154 14            	dc.b	20
 357  0155 63            	dc.b	99
 358  0156 00            	dc.b	0
 359  0157 07            	dc.b	7
 360  0158 08            	dc.b	8
 361  0159 70            	dc.b	112
 362  015a 08            	dc.b	8
 363  015b 07            	dc.b	7
 364  015c 00            	dc.b	0
 365  015d 61            	dc.b	97
 366  015e 51            	dc.b	81
 367  015f 49            	dc.b	73
 368  0160 45            	dc.b	69
 369  0161 43            	dc.b	67
 370  0162 00            	dc.b	0
 371  0163 00            	dc.b	0
 372  0164 7f            	dc.b	127
 373  0165 41            	dc.b	65
 374  0166 41            	dc.b	65
 375  0167 00            	dc.b	0
 376  0168 00            	dc.b	0
 377  0169 02            	dc.b	2
 378  016a 04            	dc.b	4
 379  016b 08            	dc.b	8
 380  016c 10            	dc.b	16
 381  016d 20            	dc.b	32
 382  016e 00            	dc.b	0
 383  016f 00            	dc.b	0
 384  0170 41            	dc.b	65
 385  0171 41            	dc.b	65
 386  0172 7f            	dc.b	127
 387  0173 00            	dc.b	0
 388  0174 00            	dc.b	0
 389  0175 04            	dc.b	4
 390  0176 02            	dc.b	2
 391  0177 01            	dc.b	1
 392  0178 02            	dc.b	2
 393  0179 04            	dc.b	4
 394  017a 00            	dc.b	0
 395  017b 40            	dc.b	64
 396  017c 40            	dc.b	64
 397  017d 40            	dc.b	64
 398  017e 40            	dc.b	64
 399  017f 40            	dc.b	64
 400  0180 00            	dc.b	0
 401  0181 00            	dc.b	0
 402  0182 01            	dc.b	1
 403  0183 02            	dc.b	2
 404  0184 04            	dc.b	4
 405  0185 00            	dc.b	0
 406  0186 00            	dc.b	0
 407  0187 20            	dc.b	32
 408  0188 54            	dc.b	84
 409  0189 54            	dc.b	84
 410  018a 54            	dc.b	84
 411  018b 78            	dc.b	120
 412  018c 00            	dc.b	0
 413  018d 7f            	dc.b	127
 414  018e 48            	dc.b	72
 415  018f 44            	dc.b	68
 416  0190 44            	dc.b	68
 417  0191 38            	dc.b	56
 418  0192 00            	dc.b	0
 419  0193 38            	dc.b	56
 420  0194 44            	dc.b	68
 421  0195 44            	dc.b	68
 422  0196 44            	dc.b	68
 423  0197 20            	dc.b	32
 424  0198 00            	dc.b	0
 425  0199 38            	dc.b	56
 426  019a 44            	dc.b	68
 427  019b 44            	dc.b	68
 428  019c 48            	dc.b	72
 429  019d 7f            	dc.b	127
 430  019e 00            	dc.b	0
 431  019f 38            	dc.b	56
 432  01a0 54            	dc.b	84
 433  01a1 54            	dc.b	84
 434  01a2 54            	dc.b	84
 435  01a3 18            	dc.b	24
 436  01a4 00            	dc.b	0
 437  01a5 08            	dc.b	8
 438  01a6 7e            	dc.b	126
 439  01a7 09            	dc.b	9
 440  01a8 01            	dc.b	1
 441  01a9 02            	dc.b	2
 442  01aa 00            	dc.b	0
 443  01ab 18            	dc.b	24
 444  01ac a4            	dc.b	164
 445  01ad a4            	dc.b	164
 446  01ae a4            	dc.b	164
 447  01af 7c            	dc.b	124
 448  01b0 00            	dc.b	0
 449  01b1 7f            	dc.b	127
 450  01b2 08            	dc.b	8
 451  01b3 04            	dc.b	4
 452  01b4 04            	dc.b	4
 453  01b5 78            	dc.b	120
 454  01b6 00            	dc.b	0
 455  01b7 00            	dc.b	0
 456  01b8 44            	dc.b	68
 457  01b9 7d            	dc.b	125
 458  01ba 40            	dc.b	64
 459  01bb 00            	dc.b	0
 460  01bc 00            	dc.b	0
 461  01bd 40            	dc.b	64
 462  01be 80            	dc.b	128
 463  01bf 84            	dc.b	132
 464  01c0 7d            	dc.b	125
 465  01c1 00            	dc.b	0
 466  01c2 00            	dc.b	0
 467  01c3 7f            	dc.b	127
 468  01c4 10            	dc.b	16
 469  01c5 28            	dc.b	40
 470  01c6 44            	dc.b	68
 471  01c7 00            	dc.b	0
 472  01c8 00            	dc.b	0
 473  01c9 00            	dc.b	0
 474  01ca 41            	dc.b	65
 475  01cb 7f            	dc.b	127
 476  01cc 40            	dc.b	64
 477  01cd 00            	dc.b	0
 478  01ce 00            	dc.b	0
 479  01cf 7c            	dc.b	124
 480  01d0 04            	dc.b	4
 481  01d1 18            	dc.b	24
 482  01d2 04            	dc.b	4
 483  01d3 78            	dc.b	120
 484  01d4 00            	dc.b	0
 485  01d5 7c            	dc.b	124
 486  01d6 08            	dc.b	8
 487  01d7 04            	dc.b	4
 488  01d8 04            	dc.b	4
 489  01d9 78            	dc.b	120
 490  01da 00            	dc.b	0
 491  01db 38            	dc.b	56
 492  01dc 44            	dc.b	68
 493  01dd 44            	dc.b	68
 494  01de 44            	dc.b	68
 495  01df 38            	dc.b	56
 496  01e0 00            	dc.b	0
 497  01e1 fc            	dc.b	252
 498  01e2 24            	dc.b	36
 499  01e3 24            	dc.b	36
 500  01e4 24            	dc.b	36
 501  01e5 18            	dc.b	24
 502  01e6 00            	dc.b	0
 503  01e7 18            	dc.b	24
 504  01e8 24            	dc.b	36
 505  01e9 24            	dc.b	36
 506  01ea 18            	dc.b	24
 507  01eb fc            	dc.b	252
 508  01ec 00            	dc.b	0
 509  01ed 7c            	dc.b	124
 510  01ee 08            	dc.b	8
 511  01ef 04            	dc.b	4
 512  01f0 04            	dc.b	4
 513  01f1 08            	dc.b	8
 514  01f2 00            	dc.b	0
 515  01f3 48            	dc.b	72
 516  01f4 54            	dc.b	84
 517  01f5 54            	dc.b	84
 518  01f6 54            	dc.b	84
 519  01f7 20            	dc.b	32
 520  01f8 00            	dc.b	0
 521  01f9 04            	dc.b	4
 522  01fa 3f            	dc.b	63
 523  01fb 44            	dc.b	68
 524  01fc 40            	dc.b	64
 525  01fd 20            	dc.b	32
 526  01fe 00            	dc.b	0
 527  01ff 3c            	dc.b	60
 528  0200 40            	dc.b	64
 529  0201 40            	dc.b	64
 530  0202 20            	dc.b	32
 531  0203 7c            	dc.b	124
 532  0204 00            	dc.b	0
 533  0205 1c            	dc.b	28
 534  0206 20            	dc.b	32
 535  0207 40            	dc.b	64
 536  0208 20            	dc.b	32
 537  0209 1c            	dc.b	28
 538  020a 00            	dc.b	0
 539  020b 3c            	dc.b	60
 540  020c 40            	dc.b	64
 541  020d 30            	dc.b	48
 542  020e 40            	dc.b	64
 543  020f 3c            	dc.b	60
 544  0210 00            	dc.b	0
 545  0211 44            	dc.b	68
 546  0212 28            	dc.b	40
 547  0213 10            	dc.b	16
 548  0214 28            	dc.b	40
 549  0215 44            	dc.b	68
 550  0216 00            	dc.b	0
 551  0217 1c            	dc.b	28
 552  0218 a0            	dc.b	160
 553  0219 a0            	dc.b	160
 554  021a a0            	dc.b	160
 555  021b 7c            	dc.b	124
 556  021c 00            	dc.b	0
 557  021d 44            	dc.b	68
 558  021e 64            	dc.b	100
 559  021f 54            	dc.b	84
 560  0220 4c            	dc.b	76
 561  0221 44            	dc.b	68
 562  0222 14            	dc.b	20
 563  0223 14            	dc.b	20
 564  0224 14            	dc.b	20
 565  0225 14            	dc.b	20
 566  0226 14            	dc.b	20
 567  0227 14            	dc.b	20
 568  0228               _water_Full:
 569  0228 00            	dc.b	0
 570  0229 80            	dc.b	128
 571  022a c0            	dc.b	192
 572  022b e0            	dc.b	224
 573  022c 30            	dc.b	48
 574  022d 18            	dc.b	24
 575  022e 0c            	dc.b	12
 576  022f 06            	dc.b	6
 577  0230 47            	dc.b	71
 578  0231 8e            	dc.b	142
 579  0232 1c            	dc.b	28
 580  0233 38            	dc.b	56
 581  0234 f0            	dc.b	240
 582  0235 e0            	dc.b	224
 583  0236 10            	dc.b	16
 584  0237 00            	dc.b	0
 585  0238 00            	dc.b	0
 586  0239 0f            	dc.b	15
 587  023a 1f            	dc.b	31
 588  023b 38            	dc.b	56
 589  023c 60            	dc.b	96
 590  023d 62            	dc.b	98
 591  023e 48            	dc.b	72
 592  023f 50            	dc.b	80
 593  0240 40            	dc.b	64
 594  0241 40            	dc.b	64
 595  0242 60            	dc.b	96
 596  0243 60            	dc.b	96
 597  0244 39            	dc.b	57
 598  0245 1f            	dc.b	31
 599  0246 0f            	dc.b	15
 600  0247 00            	dc.b	0
 601  0248               _water_Low:
 602  0248 00            	dc.b	0
 603  0249 80            	dc.b	128
 604  024a c0            	dc.b	192
 605  024b e0            	dc.b	224
 606  024c f0            	dc.b	240
 607  024d f8            	dc.b	248
 608  024e fc            	dc.b	252
 609  024f fe            	dc.b	254
 610  0250 bf            	dc.b	191
 611  0251 3e            	dc.b	62
 612  0252 7c            	dc.b	124
 613  0253 f8            	dc.b	248
 614  0254 f0            	dc.b	240
 615  0255 e0            	dc.b	224
 616  0256 80            	dc.b	128
 617  0257 00            	dc.b	0
 618  0258 00            	dc.b	0
 619  0259 0f            	dc.b	15
 620  025a 1f            	dc.b	31
 621  025b 3f            	dc.b	63
 622  025c 75            	dc.b	117
 623  025d 65            	dc.b	101
 624  025e 4f            	dc.b	79
 625  025f 5f            	dc.b	95
 626  0260 5f            	dc.b	95
 627  0261 5f            	dc.b	95
 628  0262 5f            	dc.b	95
 629  0263 7c            	dc.b	124
 630  0264 3f            	dc.b	63
 631  0265 1f            	dc.b	31
 632  0266 0f            	dc.b	15
 633  0267 00            	dc.b	0
 716                     	switch	.const
 717  0268               L6:
 718  0268 000f4240      	dc.l	1000000
 719                     ; 5 void I2C_setup(void)
 719                     ; 6 {
 720                     	scross	off
 721                     	switch	.text
 722  0000               _I2C_setup:
 726                     ; 7     I2C_DeInit();
 728  0000 cd0000        	call	_I2C_DeInit
 730                     ; 9     I2C_Init(100000, 
 730                     ; 10              SSD1306_I2C_Address, 
 730                     ; 11              I2C_DUTYCYCLE_2, 
 730                     ; 12              I2C_ACK_CURR, 
 730                     ; 13              I2C_ADDMODE_7BIT, 
 730                     ; 14              (CLK_GetClockFreq() / 1000000));
 732  0003 cd0000        	call	_CLK_GetClockFreq
 734  0006 ae0268        	ldw	x,#L6
 735  0009 cd0000        	call	c_ludv
 737  000c b603          	ld	a,c_lreg+3
 738  000e 88            	push	a
 739  000f 4b00          	push	#0
 740  0011 4b01          	push	#1
 741  0013 4b00          	push	#0
 742  0015 ae0078        	ldw	x,#120
 743  0018 89            	pushw	x
 744  0019 ae86a0        	ldw	x,#34464
 745  001c 89            	pushw	x
 746  001d ae0001        	ldw	x,#1
 747  0020 89            	pushw	x
 748  0021 cd0000        	call	_I2C_Init
 750  0024 5b0a          	addw	sp,#10
 751                     ; 16     I2C_Cmd(ENABLE);
 753  0026 a601          	ld	a,#1
 754  0028 cd0000        	call	_I2C_Cmd
 756                     ; 17 }
 759  002b 81            	ret
 783                     ; 20 void OLED_HW_setup(void)
 783                     ; 21 {
 784                     	switch	.text
 785  002c               _OLED_HW_setup:
 789                     ; 22 	I2C_setup();
 791  002c add2          	call	_I2C_setup
 793                     ; 23 }
 796  002e 81            	ret
 822                     ; 26 void OLED_init(void)
 822                     ; 27 {
 823                     	switch	.text
 824  002f               _OLED_init:
 828                     ; 28      OLED_HW_setup();
 830  002f adfb          	call	_OLED_HW_setup
 832                     ; 29      delay_ms(100);
 834  0031 ae0064        	ldw	x,#100
 835  0034 cd0000        	call	_delay_ms
 837                     ; 31      OLED_write((Set_Display_ON_or_OFF_CMD | Display_OFF), SSD1306_CMD);
 839  0037 aeae00        	ldw	x,#44544
 840  003a cd00d2        	call	_OLED_write
 842                     ; 32      OLED_write(Set_Multiplex_Ratio_CMD, SSD1306_CMD);
 844  003d aea800        	ldw	x,#43008
 845  0040 cd00d2        	call	_OLED_write
 847                     ; 33      OLED_write(0x1F, SSD1306_CMD);
 849  0043 ae1f00        	ldw	x,#7936
 850  0046 cd00d2        	call	_OLED_write
 852                     ; 34      OLED_write(Set_Display_Offset_CMD, SSD1306_CMD);
 854  0049 aed300        	ldw	x,#54016
 855  004c cd00d2        	call	_OLED_write
 857                     ; 35      OLED_write(0x00, SSD1306_CMD);
 859  004f 5f            	clrw	x
 860  0050 cd00d2        	call	_OLED_write
 862                     ; 36      OLED_write(Set_Display_Start_Line_CMD, SSD1306_CMD);
 864  0053 ae4000        	ldw	x,#16384
 865  0056 ad7a          	call	_OLED_write
 867                     ; 37      OLED_write((Set_Segment_Remap_CMD | Column_Address_0_Mapped_to_SEG127), SSD1306_CMD);
 869  0058 aea100        	ldw	x,#41216
 870  005b ad75          	call	_OLED_write
 872                     ; 38      OLED_write((Set_COM_Output_Scan_Direction_CMD | Scan_from_COM63_to_0), SSD1306_CMD);
 874  005d aec800        	ldw	x,#51200
 875  0060 ad70          	call	_OLED_write
 877                     ; 39      OLED_write(Set_Common_HW_Config_CMD, SSD1306_CMD);
 879  0062 aeda00        	ldw	x,#55808
 880  0065 ad6b          	call	_OLED_write
 882                     ; 40      OLED_write(0x02, SSD1306_CMD);
 884  0067 ae0200        	ldw	x,#512
 885  006a ad66          	call	_OLED_write
 887                     ; 41      OLED_write(Set_Contrast_Control_CMD, SSD1306_CMD);
 889  006c ae8100        	ldw	x,#33024
 890  006f ad61          	call	_OLED_write
 892                     ; 42      OLED_write(0x8F, SSD1306_CMD);
 894  0071 ae8f00        	ldw	x,#36608
 895  0074 ad5c          	call	_OLED_write
 897                     ; 43      OLED_write(Set_Entire_Display_ON_CMD, SSD1306_CMD);
 899  0076 aea400        	ldw	x,#41984
 900  0079 ad57          	call	_OLED_write
 902                     ; 44      OLED_write(Set_Normal_or_Inverse_Display_CMD, SSD1306_CMD);
 904  007b aea600        	ldw	x,#42496
 905  007e ad52          	call	_OLED_write
 907                     ; 45      OLED_write(Set_Display_Clock_CMD, SSD1306_CMD);
 909  0080 aed500        	ldw	x,#54528
 910  0083 ad4d          	call	_OLED_write
 912                     ; 46      OLED_write(0x80, SSD1306_CMD);
 914  0085 ae8000        	ldw	x,#32768
 915  0088 ad48          	call	_OLED_write
 917                     ; 47      OLED_write(Set_Pre_charge_Period_CMD, SSD1306_CMD);
 919  008a aed900        	ldw	x,#55552
 920  008d ad43          	call	_OLED_write
 922                     ; 48      OLED_write(0xF1, SSD1306_CMD);
 924  008f aef100        	ldw	x,#61696
 925  0092 ad3e          	call	_OLED_write
 927                     ; 49      OLED_write(Set_VCOMH_Level_CMD, SSD1306_CMD);
 929  0094 aedb00        	ldw	x,#56064
 930  0097 ad39          	call	_OLED_write
 932                     ; 50      OLED_write(0x40, SSD1306_CMD);
 934  0099 ae4000        	ldw	x,#16384
 935  009c ad34          	call	_OLED_write
 937                     ; 51      OLED_write(Set_Page_Address_CMD, SSD1306_CMD);
 939  009e ae2200        	ldw	x,#8704
 940  00a1 ad2f          	call	_OLED_write
 942                     ; 52      OLED_write(0x00, SSD1306_CMD);
 944  00a3 5f            	clrw	x
 945  00a4 ad2c          	call	_OLED_write
 947                     ; 53      OLED_write(0x03, SSD1306_CMD);
 949  00a6 ae0300        	ldw	x,#768
 950  00a9 ad27          	call	_OLED_write
 952                     ; 54      OLED_write(Set_Page_Start_Address_CMD , SSD1306_CMD);
 954  00ab aeb000        	ldw	x,#45056
 955  00ae ad22          	call	_OLED_write
 957                     ; 55      OLED_write(Set_Higher_Column_Start_Address_CMD, SSD1306_CMD);
 959  00b0 ae1000        	ldw	x,#4096
 960  00b3 ad1d          	call	_OLED_write
 962                     ; 56      OLED_write(Set_Lower_Column_Start_Address_CMD, SSD1306_CMD);
 964  00b5 5f            	clrw	x
 965  00b6 ad1a          	call	_OLED_write
 967                     ; 57      OLED_write(Set_Memory_Addressing_Mode_CMD, SSD1306_CMD);
 969  00b8 ae2000        	ldw	x,#8192
 970  00bb ad15          	call	_OLED_write
 972                     ; 58      OLED_write(0x02, SSD1306_CMD);
 974  00bd ae0200        	ldw	x,#512
 975  00c0 ad10          	call	_OLED_write
 977                     ; 59      OLED_write(Set_Charge_Pump_CMD, SSD1306_CMD);
 979  00c2 ae8d00        	ldw	x,#36096
 980  00c5 ad0b          	call	_OLED_write
 982                     ; 60      OLED_write(0x14, SSD1306_CMD);
 984  00c7 ae1400        	ldw	x,#5120
 985  00ca ad06          	call	_OLED_write
 987                     ; 61      OLED_write((Set_Display_ON_or_OFF_CMD | Display_ON), SSD1306_CMD);
 989  00cc aeaf00        	ldw	x,#44800
 990  00cf ad01          	call	_OLED_write
 992                     ; 62 }
 995  00d1 81            	ret
1044                     ; 65 void OLED_write(unsigned char value, unsigned char control_byte)
1044                     ; 66 {
1045                     	switch	.text
1046  00d2               _OLED_write:
1048  00d2 89            	pushw	x
1049       00000000      OFST:	set	0
1052  00d3               L311:
1053                     ; 67     while(I2C_GetFlagStatus(I2C_FLAG_BUSBUSY));
1055  00d3 ae0302        	ldw	x,#770
1056  00d6 cd0000        	call	_I2C_GetFlagStatus
1058  00d9 4d            	tnz	a
1059  00da 26f7          	jrne	L311
1060                     ; 69 	I2C_GenerateSTART(ENABLE);
1062  00dc a601          	ld	a,#1
1063  00de cd0000        	call	_I2C_GenerateSTART
1066  00e1               L121:
1067                     ; 70     while(!I2C_CheckEvent(I2C_EVENT_MASTER_MODE_SELECT));
1069  00e1 ae0301        	ldw	x,#769
1070  00e4 cd0000        	call	_I2C_CheckEvent
1072  00e7 4d            	tnz	a
1073  00e8 27f7          	jreq	L121
1074                     ; 72     I2C_Send7bitAddress(SSD1306_I2C_Address, I2C_DIRECTION_TX); 
1076  00ea ae7800        	ldw	x,#30720
1077  00ed cd0000        	call	_I2C_Send7bitAddress
1080  00f0               L721:
1081                     ; 73     while(!I2C_CheckEvent(I2C_EVENT_MASTER_TRANSMITTER_MODE_SELECTED));
1083  00f0 ae0782        	ldw	x,#1922
1084  00f3 cd0000        	call	_I2C_CheckEvent
1086  00f6 4d            	tnz	a
1087  00f7 27f7          	jreq	L721
1088                     ; 75     I2C_SendData(control_byte);
1090  00f9 7b02          	ld	a,(OFST+2,sp)
1091  00fb cd0000        	call	_I2C_SendData
1094  00fe               L531:
1095                     ; 76     while(!I2C_CheckEvent(I2C_EVENT_MASTER_BYTE_TRANSMITTING));
1097  00fe ae0780        	ldw	x,#1920
1098  0101 cd0000        	call	_I2C_CheckEvent
1100  0104 4d            	tnz	a
1101  0105 27f7          	jreq	L531
1102                     ; 78     I2C_SendData(value);
1104  0107 7b01          	ld	a,(OFST+1,sp)
1105  0109 cd0000        	call	_I2C_SendData
1108  010c               L341:
1109                     ; 79     while(!I2C_CheckEvent(I2C_EVENT_MASTER_BYTE_TRANSMITTED));
1111  010c ae0784        	ldw	x,#1924
1112  010f cd0000        	call	_I2C_CheckEvent
1114  0112 4d            	tnz	a
1115  0113 27f7          	jreq	L341
1116                     ; 81     I2C_GenerateSTOP(ENABLE);  
1118  0115 a601          	ld	a,#1
1119  0117 cd0000        	call	_I2C_GenerateSTOP
1121                     ; 82 }
1124  011a 85            	popw	x
1125  011b 81            	ret
1169                     ; 85 void OLED_gotoxy(unsigned char x_pos, unsigned char y_pos)
1169                     ; 86 {
1170                     	switch	.text
1171  011c               _OLED_gotoxy:
1173  011c 89            	pushw	x
1174       00000000      OFST:	set	0
1177                     ; 87 		 if(y_pos > 3) y_pos = 3;
1179  011d 9f            	ld	a,xl
1180  011e a104          	cp	a,#4
1181  0120 2504          	jrult	L171
1184  0122 a603          	ld	a,#3
1185  0124 6b02          	ld	(OFST+2,sp),a
1186  0126               L171:
1187                     ; 88 		 if(x_pos > 127) x_pos = 127;
1189  0126 7b01          	ld	a,(OFST+1,sp)
1190  0128 a180          	cp	a,#128
1191  012a 2504          	jrult	L371
1194  012c a67f          	ld	a,#127
1195  012e 6b01          	ld	(OFST+1,sp),a
1196  0130               L371:
1197                     ; 89      OLED_write((Set_Page_Start_Address_CMD + y_pos), SSD1306_CMD);
1199  0130 7b02          	ld	a,(OFST+2,sp)
1200  0132 abb0          	add	a,#176
1201  0134 5f            	clrw	x
1202  0135 95            	ld	xh,a
1203  0136 ad9a          	call	_OLED_write
1205                     ; 90      OLED_write(((x_pos & 0x0F) | Set_Lower_Column_Start_Address_CMD), SSD1306_CMD);
1207  0138 7b01          	ld	a,(OFST+1,sp)
1208  013a a40f          	and	a,#15
1209  013c 5f            	clrw	x
1210  013d 95            	ld	xh,a
1211  013e ad92          	call	_OLED_write
1213                     ; 91      OLED_write((((x_pos & 0xF0) >> 0x04) | Set_Higher_Column_Start_Address_CMD), SSD1306_CMD);
1215  0140 7b01          	ld	a,(OFST+1,sp)
1216  0142 4e            	swap	a
1217  0143 a40f          	and	a,#15
1218  0145 aa10          	or	a,#16
1219  0147 5f            	clrw	x
1220  0148 95            	ld	xh,a
1221  0149 ad87          	call	_OLED_write
1223                     ; 92 }
1226  014b 85            	popw	x
1227  014c 81            	ret
1285                     ; 95 void OLED_fill(unsigned char bmp_data)
1285                     ; 96 {
1286                     	switch	.text
1287  014d               _OLED_fill:
1289  014d 88            	push	a
1290  014e 89            	pushw	x
1291       00000002      OFST:	set	2
1294                     ; 97     unsigned char x_pos = 0x00;
1296                     ; 98     unsigned char page = 0x00;
1298                     ; 100     for(page = 0; page < 4; page++)
1300  014f 0f01          	clr	(OFST-1,sp)
1302  0151               L322:
1303                     ; 102         OLED_gotoxy(x_min, page);
1305  0151 7b01          	ld	a,(OFST-1,sp)
1306  0153 5f            	clrw	x
1307  0154 97            	ld	xl,a
1308  0155 adc5          	call	_OLED_gotoxy
1310                     ; 104         I2C_GenerateSTART(ENABLE);
1312  0157 a601          	ld	a,#1
1313  0159 cd0000        	call	_I2C_GenerateSTART
1316  015c               L332:
1317                     ; 105         while(!I2C_CheckEvent(I2C_EVENT_MASTER_MODE_SELECT));
1319  015c ae0301        	ldw	x,#769
1320  015f cd0000        	call	_I2C_CheckEvent
1322  0162 4d            	tnz	a
1323  0163 27f7          	jreq	L332
1324                     ; 107         I2C_Send7bitAddress(SSD1306_I2C_Address, I2C_DIRECTION_TX); 
1326  0165 ae7800        	ldw	x,#30720
1327  0168 cd0000        	call	_I2C_Send7bitAddress
1330  016b               L142:
1331                     ; 108         while(!I2C_CheckEvent(I2C_EVENT_MASTER_TRANSMITTER_MODE_SELECTED));
1333  016b ae0782        	ldw	x,#1922
1334  016e cd0000        	call	_I2C_CheckEvent
1336  0171 4d            	tnz	a
1337  0172 27f7          	jreq	L142
1338                     ; 110         I2C_SendData(SSD1306_DAT);
1340  0174 a660          	ld	a,#96
1341  0176 cd0000        	call	_I2C_SendData
1344  0179               L742:
1345                     ; 111         while(!I2C_CheckEvent(I2C_EVENT_MASTER_BYTE_TRANSMITTING));    
1347  0179 ae0780        	ldw	x,#1920
1348  017c cd0000        	call	_I2C_CheckEvent
1350  017f 4d            	tnz	a
1351  0180 27f7          	jreq	L742
1352                     ; 113         for(x_pos = x_min; x_pos < x_max; x_pos++)
1354  0182 0f02          	clr	(OFST+0,sp)
1356  0184               L352:
1357                     ; 115            I2C_SendData(bmp_data);
1359  0184 7b03          	ld	a,(OFST+1,sp)
1360  0186 cd0000        	call	_I2C_SendData
1363  0189               L362:
1364                     ; 116 		   while(!I2C_CheckEvent(I2C_EVENT_MASTER_BYTE_TRANSMITTED));  
1366  0189 ae0784        	ldw	x,#1924
1367  018c cd0000        	call	_I2C_CheckEvent
1369  018f 4d            	tnz	a
1370  0190 27f7          	jreq	L362
1371                     ; 113         for(x_pos = x_min; x_pos < x_max; x_pos++)
1373  0192 0c02          	inc	(OFST+0,sp)
1377  0194 7b02          	ld	a,(OFST+0,sp)
1378  0196 a180          	cp	a,#128
1379  0198 25ea          	jrult	L352
1380                     ; 119         I2C_GenerateSTOP(ENABLE);  
1382  019a a601          	ld	a,#1
1383  019c cd0000        	call	_I2C_GenerateSTOP
1385                     ; 100     for(page = 0; page < 4; page++)
1387  019f 0c01          	inc	(OFST-1,sp)
1391  01a1 7b01          	ld	a,(OFST-1,sp)
1392  01a3 a104          	cp	a,#4
1393  01a5 25aa          	jrult	L322
1394                     ; 121 }
1397  01a7 5b03          	addw	sp,#3
1398  01a9 81            	ret
1466                     ; 169 void OLED_print_Image(const unsigned char *bmp, unsigned char pixel)
1466                     ; 170 {
1467                     	switch	.text
1468  01aa               _OLED_print_Image:
1470  01aa 89            	pushw	x
1471  01ab 89            	pushw	x
1472       00000002      OFST:	set	2
1475                     ; 171     unsigned char x_pos = 0;
1477                     ; 172     unsigned char page = 0;
1479                     ; 174     if(pixel != OFF)
1481  01ac 0d07          	tnz	(OFST+5,sp)
1482  01ae 2706          	jreq	L123
1483                     ; 176         pixel = 0xFF;
1485  01b0 a6ff          	ld	a,#255
1486  01b2 6b07          	ld	(OFST+5,sp),a
1488  01b4 2002          	jra	L323
1489  01b6               L123:
1490                     ; 180         pixel = 0x00;
1492  01b6 0f07          	clr	(OFST+5,sp)
1493  01b8               L323:
1494                     ; 183     for(page = 0; page < 2; page++)
1496  01b8 0f01          	clr	(OFST-1,sp)
1498  01ba               L523:
1499                     ; 185          OLED_gotoxy(x_min, page);
1501  01ba 7b01          	ld	a,(OFST-1,sp)
1502  01bc 5f            	clrw	x
1503  01bd 97            	ld	xl,a
1504  01be cd011c        	call	_OLED_gotoxy
1506                     ; 187          I2C_GenerateSTART(ENABLE);
1508  01c1 a601          	ld	a,#1
1509  01c3 cd0000        	call	_I2C_GenerateSTART
1512  01c6               L533:
1513                     ; 188          while(!I2C_CheckEvent(I2C_EVENT_MASTER_MODE_SELECT));
1515  01c6 ae0301        	ldw	x,#769
1516  01c9 cd0000        	call	_I2C_CheckEvent
1518  01cc 4d            	tnz	a
1519  01cd 27f7          	jreq	L533
1520                     ; 190          I2C_Send7bitAddress(SSD1306_I2C_Address, I2C_DIRECTION_TX); 
1522  01cf ae7800        	ldw	x,#30720
1523  01d2 cd0000        	call	_I2C_Send7bitAddress
1526  01d5               L343:
1527                     ; 191          while(!I2C_CheckEvent(I2C_EVENT_MASTER_TRANSMITTER_MODE_SELECTED));
1529  01d5 ae0782        	ldw	x,#1922
1530  01d8 cd0000        	call	_I2C_CheckEvent
1532  01db 4d            	tnz	a
1533  01dc 27f7          	jreq	L343
1534                     ; 193          I2C_SendData(SSD1306_DAT);
1536  01de a660          	ld	a,#96
1537  01e0 cd0000        	call	_I2C_SendData
1540  01e3               L153:
1541                     ; 194          while(!I2C_CheckEvent(I2C_EVENT_MASTER_BYTE_TRANSMITTING));    
1543  01e3 ae0780        	ldw	x,#1920
1544  01e6 cd0000        	call	_I2C_CheckEvent
1546  01e9 4d            	tnz	a
1547  01ea 27f7          	jreq	L153
1548                     ; 196          for(x_pos = x_min; x_pos < 16; x_pos++)
1550  01ec 0f02          	clr	(OFST+0,sp)
1552  01ee               L553:
1553                     ; 198             I2C_SendData((*bmp++ ^ pixel));
1555  01ee 1e03          	ldw	x,(OFST+1,sp)
1556  01f0 1c0001        	addw	x,#1
1557  01f3 1f03          	ldw	(OFST+1,sp),x
1558  01f5 1d0001        	subw	x,#1
1559  01f8 f6            	ld	a,(x)
1560  01f9 1807          	xor	a,(OFST+5,sp)
1561  01fb cd0000        	call	_I2C_SendData
1564  01fe               L563:
1565                     ; 199             while(!I2C_CheckEvent(I2C_EVENT_MASTER_BYTE_TRANSMITTED));
1567  01fe ae0784        	ldw	x,#1924
1568  0201 cd0000        	call	_I2C_CheckEvent
1570  0204 4d            	tnz	a
1571  0205 27f7          	jreq	L563
1572                     ; 196          for(x_pos = x_min; x_pos < 16; x_pos++)
1574  0207 0c02          	inc	(OFST+0,sp)
1578  0209 7b02          	ld	a,(OFST+0,sp)
1579  020b a110          	cp	a,#16
1580  020d 25df          	jrult	L553
1581                     ; 202 		 I2C_GenerateSTOP(ENABLE); 
1583  020f a601          	ld	a,#1
1584  0211 cd0000        	call	_I2C_GenerateSTOP
1586                     ; 183     for(page = 0; page < 2; page++)
1588  0214 0c01          	inc	(OFST-1,sp)
1592  0216 7b01          	ld	a,(OFST-1,sp)
1593  0218 a102          	cp	a,#2
1594  021a 259e          	jrult	L523
1595                     ; 204 }
1598  021c 5b04          	addw	sp,#4
1599  021e 81            	ret
1623                     ; 207 void OLED_clear_screen(void)
1623                     ; 208 {
1624                     	switch	.text
1625  021f               _OLED_clear_screen:
1629                     ; 209     OLED_fill(0x00);
1631  021f 4f            	clr	a
1632  0220 cd014d        	call	_OLED_fill
1634                     ; 210 }
1637  0223 81            	ret
1672                     ; 212 void OLED_clear_buffer(void)
1672                     ; 213 {
1673                     	switch	.text
1674  0224               _OLED_clear_buffer:
1676  0224 89            	pushw	x
1677       00000002      OFST:	set	2
1680                     ; 214      unsigned int s = 0x0000;
1682                     ; 216      for(s = 0; s < buffer_size; s++)
1684  0225 5f            	clrw	x
1685  0226 1f01          	ldw	(OFST-1,sp),x
1687  0228               L714:
1688                     ; 218           buffer[s] = 0x00;
1690  0228 1e01          	ldw	x,(OFST-1,sp)
1691  022a 6f00          	clr	(_buffer,x)
1692                     ; 216      for(s = 0; s < buffer_size; s++)
1694  022c 1e01          	ldw	x,(OFST-1,sp)
1695  022e 1c0001        	addw	x,#1
1696  0231 1f01          	ldw	(OFST-1,sp),x
1700  0233 1e01          	ldw	x,(OFST-1,sp)
1701  0235 a30080        	cpw	x,#128
1702  0238 25ee          	jrult	L714
1703                     ; 220 }
1706  023a 85            	popw	x
1707  023b 81            	ret
1780                     ; 222 void OLED_print_char(unsigned char x_pos, unsigned char y_pos, unsigned char ch)
1780                     ; 223 {
1781                     	switch	.text
1782  023c               _OLED_print_char:
1784  023c 89            	pushw	x
1785  023d 89            	pushw	x
1786       00000002      OFST:	set	2
1789                     ; 224   unsigned char s = 0x00;
1791                     ; 225   unsigned char chr = 0x00;
1793                     ; 227   chr = (ch - 0x20);
1795  023e 7b07          	ld	a,(OFST+5,sp)
1796  0240 a020          	sub	a,#32
1797  0242 6b01          	ld	(OFST-1,sp),a
1799                     ; 229   if(x_pos > (x_max - 0x06))
1801  0244 9e            	ld	a,xh
1802  0245 a17b          	cp	a,#123
1803  0247 250c          	jrult	L364
1804                     ; 231     x_pos = 0x00;
1806  0249 0f03          	clr	(OFST+1,sp)
1807                     ; 232     y_pos++;
1809  024b 0c04          	inc	(OFST+2,sp)
1810                     ; 233 		if(y_pos > 3) y_pos = 0;
1812  024d 7b04          	ld	a,(OFST+2,sp)
1813  024f a104          	cp	a,#4
1814  0251 2502          	jrult	L364
1817  0253 0f04          	clr	(OFST+2,sp)
1818  0255               L364:
1819                     ; 235   OLED_gotoxy(x_pos, y_pos);
1821  0255 7b04          	ld	a,(OFST+2,sp)
1822  0257 97            	ld	xl,a
1823  0258 7b03          	ld	a,(OFST+1,sp)
1824  025a 95            	ld	xh,a
1825  025b cd011c        	call	_OLED_gotoxy
1827                     ; 237   for(s = 0x00; s < 0x06; s++)
1829  025e 0f02          	clr	(OFST+0,sp)
1831  0260               L764:
1832                     ; 239     OLED_write(font_regular[chr][s], SSD1306_DAT);
1834  0260 7b01          	ld	a,(OFST-1,sp)
1835  0262 97            	ld	xl,a
1836  0263 a606          	ld	a,#6
1837  0265 42            	mul	x,a
1838  0266 01            	rrwa	x,a
1839  0267 1b02          	add	a,(OFST+0,sp)
1840  0269 2401          	jrnc	L23
1841  026b 5c            	incw	x
1842  026c               L23:
1843  026c 02            	rlwa	x,a
1844  026d d60000        	ld	a,(L3_font_regular,x)
1845  0270 ae0060        	ldw	x,#96
1846  0273 95            	ld	xh,a
1847  0274 cd00d2        	call	_OLED_write
1849                     ; 237   for(s = 0x00; s < 0x06; s++)
1851  0277 0c02          	inc	(OFST+0,sp)
1855  0279 7b02          	ld	a,(OFST+0,sp)
1856  027b a106          	cp	a,#6
1857  027d 25e1          	jrult	L764
1858                     ; 241 }
1861  027f 5b04          	addw	sp,#4
1862  0281 81            	ret
1916                     ; 244 void OLED_print_string(unsigned char x_pos, unsigned char y_pos, char *ch)
1916                     ; 245 {
1917                     	switch	.text
1918  0282               _OLED_print_string:
1920  0282 89            	pushw	x
1921       00000000      OFST:	set	0
1924  0283               L325:
1925                     ; 248     OLED_print_char(x_pos, y_pos, *ch++);
1927  0283 1e05          	ldw	x,(OFST+5,sp)
1928  0285 1c0001        	addw	x,#1
1929  0288 1f05          	ldw	(OFST+5,sp),x
1930  028a 1d0001        	subw	x,#1
1931  028d f6            	ld	a,(x)
1932  028e 88            	push	a
1933  028f 7b03          	ld	a,(OFST+3,sp)
1934  0291 97            	ld	xl,a
1935  0292 7b02          	ld	a,(OFST+2,sp)
1936  0294 95            	ld	xh,a
1937  0295 ada5          	call	_OLED_print_char
1939  0297 84            	pop	a
1940                     ; 249     x_pos += 0x06;
1942  0298 7b01          	ld	a,(OFST+1,sp)
1943  029a ab06          	add	a,#6
1944  029c 6b01          	ld	(OFST+1,sp),a
1945                     ; 250 		if(x_pos > (x_max - 6) && (*ch != '\0'))
1947  029e 7b01          	ld	a,(OFST+1,sp)
1948  02a0 a17b          	cp	a,#123
1949  02a2 2511          	jrult	L525
1951  02a4 1e05          	ldw	x,(OFST+5,sp)
1952  02a6 7d            	tnz	(x)
1953  02a7 270c          	jreq	L525
1954                     ; 252       x_pos = 0;
1956  02a9 0f01          	clr	(OFST+1,sp)
1957                     ; 253       y_pos++;
1959  02ab 0c02          	inc	(OFST+2,sp)
1960                     ; 254       if(y_pos > 3) y_pos = 0;  // 循環顯示
1962  02ad 7b02          	ld	a,(OFST+2,sp)
1963  02af a104          	cp	a,#4
1964  02b1 2502          	jrult	L525
1967  02b3 0f02          	clr	(OFST+2,sp)
1968  02b5               L525:
1969                     ; 256   }while((*ch >= 0x20) && (*ch <= 0x7F) && (*ch != '\n'));
1971  02b5 1e05          	ldw	x,(OFST+5,sp)
1972  02b7 f6            	ld	a,(x)
1973  02b8 a120          	cp	a,#32
1974  02ba 250e          	jrult	L535
1976  02bc 1e05          	ldw	x,(OFST+5,sp)
1977  02be f6            	ld	a,(x)
1978  02bf a180          	cp	a,#128
1979  02c1 2407          	jruge	L535
1981  02c3 1e05          	ldw	x,(OFST+5,sp)
1982  02c5 f6            	ld	a,(x)
1983  02c6 a10a          	cp	a,#10
1984  02c8 26b9          	jrne	L325
1985  02ca               L535:
1986                     ; 257 }
1989  02ca 85            	popw	x
1990  02cb 81            	ret
1993                     	switch	.const
1994  026c               L145_ch:
1995  026c 20            	dc.b	32
1996  026d 20            	dc.b	32
1997  026e 20            	dc.b	32
1998  026f 20            	dc.b	32
1999  0270 20            	dc.b	32
2000  0271 20            	dc.b	32
2001  0272 00            	dc.b	0
2081                     	switch	.const
2082  0273               L04:
2083  0273 0000000a      	dc.l	10
2084                     ; 260 void OLED_print_int(unsigned char x_pos, unsigned char y_pos, signed long value)
2084                     ; 261 {
2085                     	switch	.text
2086  02cc               _OLED_print_int:
2088  02cc 89            	pushw	x
2089  02cd 520d          	subw	sp,#13
2090       0000000d      OFST:	set	13
2093                     ; 263     char ch[7] = {0x20, 0x20, 0x20, 0x20, 0x20, 0x20, '\0'}; // 移除 \n
2095  02cf 96            	ldw	x,sp
2096  02d0 1c0003        	addw	x,#OFST-10
2097  02d3 90ae026c      	ldw	y,#L145_ch
2098  02d7 a607          	ld	a,#7
2099  02d9 cd0000        	call	c_xymov
2101                     ; 264     char *p = &ch[5];
2103  02dc 96            	ldw	x,sp
2104  02dd 1c0008        	addw	x,#OFST-5
2105  02e0 1f01          	ldw	(OFST-12,sp),x
2107                     ; 267     if(value < 0) {
2109  02e2 9c            	rvf
2110  02e3 9c            	rvf
2111  02e4 0d12          	tnz	(OFST+5,sp)
2112  02e6 2e17          	jrsge	L506
2113                     ; 268         ch[0] = 0x2D;
2115  02e8 a62d          	ld	a,#45
2116  02ea 6b03          	ld	(OFST-10,sp),a
2118                     ; 269         uval = -value;
2120  02ec 96            	ldw	x,sp
2121  02ed 1c0012        	addw	x,#OFST+5
2122  02f0 cd0000        	call	c_ltor
2124  02f3 cd0000        	call	c_lneg
2126  02f6 96            	ldw	x,sp
2127  02f7 1c000a        	addw	x,#OFST-3
2128  02fa cd0000        	call	c_rtol
2132  02fd 200c          	jra	L116
2133  02ff               L506:
2134                     ; 271         ch[0] = 0x20;
2136  02ff a620          	ld	a,#32
2137  0301 6b03          	ld	(OFST-10,sp),a
2139                     ; 272         uval = value;
2141  0303 1e14          	ldw	x,(OFST+7,sp)
2142  0305 1f0c          	ldw	(OFST-1,sp),x
2143  0307 1e12          	ldw	x,(OFST+5,sp)
2144  0309 1f0a          	ldw	(OFST-3,sp),x
2146  030b               L116:
2147                     ; 277         *p-- = (uval % 10) + 0x30;
2149  030b 96            	ldw	x,sp
2150  030c 1c000a        	addw	x,#OFST-3
2151  030f cd0000        	call	c_ltor
2153  0312 ae0273        	ldw	x,#L04
2154  0315 cd0000        	call	c_lumd
2156  0318 a630          	ld	a,#48
2157  031a cd0000        	call	c_ladc
2159  031d 1e01          	ldw	x,(OFST-12,sp)
2160  031f 1d0001        	subw	x,#1
2161  0322 1f01          	ldw	(OFST-12,sp),x
2162  0324 1c0001        	addw	x,#1
2164  0327 b603          	ld	a,c_lreg+3
2165  0329 f7            	ld	(x),a
2166                     ; 278         uval /= 10;
2168  032a 96            	ldw	x,sp
2169  032b 1c000a        	addw	x,#OFST-3
2170  032e cd0000        	call	c_ltor
2172  0331 ae0273        	ldw	x,#L04
2173  0334 cd0000        	call	c_ludv
2175  0337 96            	ldw	x,sp
2176  0338 1c000a        	addw	x,#OFST-3
2177  033b cd0000        	call	c_rtol
2180                     ; 279     } while(uval > 0 && p >= &ch[1]);
2182  033e 96            	ldw	x,sp
2183  033f 1c000a        	addw	x,#OFST-3
2184  0342 cd0000        	call	c_lzmp
2186  0345 270c          	jreq	L716
2188  0347 96            	ldw	x,sp
2189  0348 1c0004        	addw	x,#OFST-9
2190  034b bf00          	ldw	c_x,x
2191  034d 1e01          	ldw	x,(OFST-12,sp)
2192  034f b300          	cpw	x,c_x
2193  0351 24b8          	jruge	L116
2194  0353               L716:
2195                     ; 282 		OLED_print_string_2x(x_pos, y_pos, ch);//使用二頁
2197  0353 96            	ldw	x,sp
2198  0354 1c0003        	addw	x,#OFST-10
2199  0357 89            	pushw	x
2200  0358 7b11          	ld	a,(OFST+4,sp)
2201  035a 97            	ld	xl,a
2202  035b 7b10          	ld	a,(OFST+3,sp)
2203  035d 95            	ld	xh,a
2204  035e cd0503        	call	_OLED_print_string_2x
2206  0361 85            	popw	x
2207                     ; 283 }
2210  0362 5b0f          	addw	sp,#15
2211  0364 81            	ret
2293                     ; 285 void Draw_Pixel(unsigned char x_pos, unsigned char y_pos, unsigned char colour)
2293                     ; 286 {
2294                     	switch	.text
2295  0365               _Draw_Pixel:
2297  0365 89            	pushw	x
2298  0366 5203          	subw	sp,#3
2299       00000003      OFST:	set	3
2302                     ; 287     unsigned char value = 0x00;
2304                     ; 288     unsigned char page = 0x00;
2306                     ; 289     unsigned char bit_pos = 0x00;
2308                     ; 292     page = (y_pos >> 3);  // 等同於 y_pos / 8
2310  0368 9f            	ld	a,xl
2311  0369 44            	srl	a
2312  036a 44            	srl	a
2313  036b 44            	srl	a
2314  036c 6b02          	ld	(OFST-1,sp),a
2316                     ; 293     bit_pos = (y_pos & 0x07);  // 等同於 y_pos % 8
2318  036e 7b05          	ld	a,(OFST+2,sp)
2319  0370 a407          	and	a,#7
2320  0372 6b01          	ld	(OFST-2,sp),a
2322                     ; 296     if(x_pos >= x_max || y_pos >= 32) {  // 32 是總高度
2324  0374 7b04          	ld	a,(OFST+1,sp)
2325  0376 a180          	cp	a,#128
2326  0378 2406          	jruge	L566
2328  037a 7b05          	ld	a,(OFST+2,sp)
2329  037c a120          	cp	a,#32
2330  037e 2502          	jrult	L366
2331  0380               L566:
2332                     ; 297         return;
2334  0380 205d          	jra	L06
2335  0382               L366:
2336                     ; 300     value = buffer[(page * x_max) + x_pos];
2338  0382 7b02          	ld	a,(OFST-1,sp)
2339  0384 97            	ld	xl,a
2340  0385 a680          	ld	a,#128
2341  0387 42            	mul	x,a
2342  0388 01            	rrwa	x,a
2343  0389 1b04          	add	a,(OFST+1,sp)
2344  038b 2401          	jrnc	L44
2345  038d 5c            	incw	x
2346  038e               L44:
2347  038e 02            	rlwa	x,a
2348  038f e600          	ld	a,(_buffer,x)
2349  0391 6b03          	ld	(OFST+0,sp),a
2351                     ; 302     if(colour != 0)  // 直接判斷 colour
2353  0393 0d08          	tnz	(OFST+5,sp)
2354  0395 2713          	jreq	L766
2355                     ; 304         value |= (1 << bit_pos);
2357  0397 7b01          	ld	a,(OFST-2,sp)
2358  0399 5f            	clrw	x
2359  039a 97            	ld	xl,a
2360  039b a601          	ld	a,#1
2361  039d 5d            	tnzw	x
2362  039e 2704          	jreq	L64
2363  03a0               L05:
2364  03a0 48            	sll	a
2365  03a1 5a            	decw	x
2366  03a2 26fc          	jrne	L05
2367  03a4               L64:
2368  03a4 1a03          	or	a,(OFST+0,sp)
2369  03a6 6b03          	ld	(OFST+0,sp),a
2372  03a8 2012          	jra	L176
2373  03aa               L766:
2374                     ; 308         value &= (~(1 << bit_pos));
2376  03aa 7b01          	ld	a,(OFST-2,sp)
2377  03ac 5f            	clrw	x
2378  03ad 97            	ld	xl,a
2379  03ae a601          	ld	a,#1
2380  03b0 5d            	tnzw	x
2381  03b1 2704          	jreq	L25
2382  03b3               L45:
2383  03b3 48            	sll	a
2384  03b4 5a            	decw	x
2385  03b5 26fc          	jrne	L45
2386  03b7               L25:
2387  03b7 43            	cpl	a
2388  03b8 1403          	and	a,(OFST+0,sp)
2389  03ba 6b03          	ld	(OFST+0,sp),a
2391  03bc               L176:
2392                     ; 311     buffer[(page * x_max) + x_pos] = value;
2394  03bc 7b02          	ld	a,(OFST-1,sp)
2395  03be 97            	ld	xl,a
2396  03bf a680          	ld	a,#128
2397  03c1 42            	mul	x,a
2398  03c2 01            	rrwa	x,a
2399  03c3 1b04          	add	a,(OFST+1,sp)
2400  03c5 2401          	jrnc	L65
2401  03c7 5c            	incw	x
2402  03c8               L65:
2403  03c8 02            	rlwa	x,a
2404  03c9 7b03          	ld	a,(OFST+0,sp)
2405  03cb e700          	ld	(_buffer,x),a
2406                     ; 312     OLED_gotoxy(x_pos, page);
2408  03cd 7b02          	ld	a,(OFST-1,sp)
2409  03cf 97            	ld	xl,a
2410  03d0 7b04          	ld	a,(OFST+1,sp)
2411  03d2 95            	ld	xh,a
2412  03d3 cd011c        	call	_OLED_gotoxy
2414                     ; 313     OLED_write(value, SSD1306_DAT);
2416  03d6 7b03          	ld	a,(OFST+0,sp)
2417  03d8 ae0060        	ldw	x,#96
2418  03db 95            	ld	xh,a
2419  03dc cd00d2        	call	_OLED_write
2421                     ; 314 }
2422  03df               L06:
2425  03df 5b05          	addw	sp,#5
2426  03e1 81            	ret
2553                     ; 316 void OLED_print_2xChar(unsigned char x_pos, unsigned char y_pos, unsigned char ch)
2553                     ; 317 {
2554                     	switch	.text
2555  03e2               _OLED_print_2xChar:
2557  03e2 89            	pushw	x
2558  03e3 520a          	subw	sp,#10
2559       0000000a      OFST:	set	10
2562                     ; 319     unsigned char s = 0x00;
2564                     ; 320     unsigned char chr = 0x00;
2566                     ; 321     unsigned char temp = 0x00;
2568                     ; 322     unsigned char expanded1 = 0x00, expanded2 = 0x00;
2572                     ; 323     unsigned char expanded3 = 0x00, expanded4 = 0x00;
2576                     ; 324     unsigned char i = 0x00;
2578                     ; 326     chr = (ch - 0x20);
2580  03e5 7b0f          	ld	a,(OFST+5,sp)
2581  03e7 a020          	sub	a,#32
2582  03e9 6b03          	ld	(OFST-7,sp),a
2584                     ; 329     if(x_pos > (x_max - 12))
2586  03eb 9e            	ld	a,xh
2587  03ec a175          	cp	a,#117
2588  03ee 250e          	jrult	L167
2589                     ; 331         x_pos = 0;
2591  03f0 0f0b          	clr	(OFST+1,sp)
2592                     ; 332         y_pos += 2;  // 移動兩頁
2594  03f2 0c0c          	inc	(OFST+2,sp)
2595  03f4 0c0c          	inc	(OFST+2,sp)
2596                     ; 333         if(y_pos > 1) y_pos = 0;  // 最多顯示2行高字體
2598  03f6 7b0c          	ld	a,(OFST+2,sp)
2599  03f8 a102          	cp	a,#2
2600  03fa 2502          	jrult	L167
2603  03fc 0f0c          	clr	(OFST+2,sp)
2604  03fe               L167:
2605                     ; 336     for(s = 0; s < 6; s++)
2607  03fe 0f09          	clr	(OFST-1,sp)
2609  0400               L567:
2610                     ; 338         temp = font_regular[chr][s];
2612  0400 7b03          	ld	a,(OFST-7,sp)
2613  0402 97            	ld	xl,a
2614  0403 a606          	ld	a,#6
2615  0405 42            	mul	x,a
2616  0406 01            	rrwa	x,a
2617  0407 1b09          	add	a,(OFST-1,sp)
2618  0409 2401          	jrnc	L46
2619  040b 5c            	incw	x
2620  040c               L46:
2621  040c 02            	rlwa	x,a
2622  040d d60000        	ld	a,(L3_font_regular,x)
2623  0410 6b08          	ld	(OFST-2,sp),a
2625                     ; 339         expanded1 = 0x00;
2627  0412 0f04          	clr	(OFST-6,sp)
2629                     ; 340         expanded2 = 0x00;
2631  0414 0f05          	clr	(OFST-5,sp)
2633                     ; 341         expanded3 = 0x00;
2635  0416 0f06          	clr	(OFST-4,sp)
2637                     ; 342         expanded4 = 0x00;
2639  0418 0f07          	clr	(OFST-3,sp)
2641                     ; 345         for(i = 0; i < 4; i++)  // 只處理前4位用於上半部分
2643  041a 0f0a          	clr	(OFST+0,sp)
2645  041c               L377:
2646                     ; 347             if(temp & (1 << i))
2648  041c 7b08          	ld	a,(OFST-2,sp)
2649  041e 5f            	clrw	x
2650  041f 97            	ld	xl,a
2651  0420 1f01          	ldw	(OFST-9,sp),x
2653  0422 ae0001        	ldw	x,#1
2654  0425 7b0a          	ld	a,(OFST+0,sp)
2655  0427 4d            	tnz	a
2656  0428 2704          	jreq	L66
2657  042a               L07:
2658  042a 58            	sllw	x
2659  042b 4a            	dec	a
2660  042c 26fc          	jrne	L07
2661  042e               L66:
2662  042e 01            	rrwa	x,a
2663  042f 1402          	and	a,(OFST-8,sp)
2664  0431 01            	rrwa	x,a
2665  0432 1401          	and	a,(OFST-9,sp)
2666  0434 01            	rrwa	x,a
2667  0435 a30000        	cpw	x,#0
2668  0438 2724          	jreq	L1001
2669                     ; 349                 expanded1 |= (0x03 << (i * 2));
2671  043a 7b0a          	ld	a,(OFST+0,sp)
2672  043c 48            	sll	a
2673  043d 5f            	clrw	x
2674  043e 97            	ld	xl,a
2675  043f a603          	ld	a,#3
2676  0441 5d            	tnzw	x
2677  0442 2704          	jreq	L27
2678  0444               L47:
2679  0444 48            	sll	a
2680  0445 5a            	decw	x
2681  0446 26fc          	jrne	L47
2682  0448               L27:
2683  0448 1a04          	or	a,(OFST-6,sp)
2684  044a 6b04          	ld	(OFST-6,sp),a
2686                     ; 350                 expanded2 |= (0x03 << (i * 2));
2688  044c 7b0a          	ld	a,(OFST+0,sp)
2689  044e 48            	sll	a
2690  044f 5f            	clrw	x
2691  0450 97            	ld	xl,a
2692  0451 a603          	ld	a,#3
2693  0453 5d            	tnzw	x
2694  0454 2704          	jreq	L67
2695  0456               L001:
2696  0456 48            	sll	a
2697  0457 5a            	decw	x
2698  0458 26fc          	jrne	L001
2699  045a               L67:
2700  045a 1a05          	or	a,(OFST-5,sp)
2701  045c 6b05          	ld	(OFST-5,sp),a
2703  045e               L1001:
2704                     ; 345         for(i = 0; i < 4; i++)  // 只處理前4位用於上半部分
2706  045e 0c0a          	inc	(OFST+0,sp)
2710  0460 7b0a          	ld	a,(OFST+0,sp)
2711  0462 a104          	cp	a,#4
2712  0464 25b6          	jrult	L377
2713                     ; 354         for(i = 4; i < 8; i++)  // 處理後4位用於下半部分
2715  0466 a604          	ld	a,#4
2716  0468 6b0a          	ld	(OFST+0,sp),a
2718  046a               L3001:
2719                     ; 356             if(temp & (1 << i))
2721  046a 7b08          	ld	a,(OFST-2,sp)
2722  046c 5f            	clrw	x
2723  046d 97            	ld	xl,a
2724  046e 1f01          	ldw	(OFST-9,sp),x
2726  0470 ae0001        	ldw	x,#1
2727  0473 7b0a          	ld	a,(OFST+0,sp)
2728  0475 4d            	tnz	a
2729  0476 2704          	jreq	L201
2730  0478               L401:
2731  0478 58            	sllw	x
2732  0479 4a            	dec	a
2733  047a 26fc          	jrne	L401
2734  047c               L201:
2735  047c 01            	rrwa	x,a
2736  047d 1402          	and	a,(OFST-8,sp)
2737  047f 01            	rrwa	x,a
2738  0480 1401          	and	a,(OFST-9,sp)
2739  0482 01            	rrwa	x,a
2740  0483 a30000        	cpw	x,#0
2741  0486 2728          	jreq	L1101
2742                     ; 358                 expanded3 |= (0x03 << ((i - 4) * 2));
2744  0488 7b0a          	ld	a,(OFST+0,sp)
2745  048a 48            	sll	a
2746  048b a008          	sub	a,#8
2747  048d 5f            	clrw	x
2748  048e 97            	ld	xl,a
2749  048f a603          	ld	a,#3
2750  0491 5d            	tnzw	x
2751  0492 2704          	jreq	L601
2752  0494               L011:
2753  0494 48            	sll	a
2754  0495 5a            	decw	x
2755  0496 26fc          	jrne	L011
2756  0498               L601:
2757  0498 1a06          	or	a,(OFST-4,sp)
2758  049a 6b06          	ld	(OFST-4,sp),a
2760                     ; 359                 expanded4 |= (0x03 << ((i - 4) * 2));
2762  049c 7b0a          	ld	a,(OFST+0,sp)
2763  049e 48            	sll	a
2764  049f a008          	sub	a,#8
2765  04a1 5f            	clrw	x
2766  04a2 97            	ld	xl,a
2767  04a3 a603          	ld	a,#3
2768  04a5 5d            	tnzw	x
2769  04a6 2704          	jreq	L211
2770  04a8               L411:
2771  04a8 48            	sll	a
2772  04a9 5a            	decw	x
2773  04aa 26fc          	jrne	L411
2774  04ac               L211:
2775  04ac 1a07          	or	a,(OFST-3,sp)
2776  04ae 6b07          	ld	(OFST-3,sp),a
2778  04b0               L1101:
2779                     ; 354         for(i = 4; i < 8; i++)  // 處理後4位用於下半部分
2781  04b0 0c0a          	inc	(OFST+0,sp)
2785  04b2 7b0a          	ld	a,(OFST+0,sp)
2786  04b4 a108          	cp	a,#8
2787  04b6 25b2          	jrult	L3001
2788                     ; 364         OLED_gotoxy(x_pos + (s * 2), y_pos);
2790  04b8 7b0c          	ld	a,(OFST+2,sp)
2791  04ba 97            	ld	xl,a
2792  04bb 7b09          	ld	a,(OFST-1,sp)
2793  04bd 48            	sll	a
2794  04be 1b0b          	add	a,(OFST+1,sp)
2795  04c0 95            	ld	xh,a
2796  04c1 cd011c        	call	_OLED_gotoxy
2798                     ; 365         OLED_write(expanded1, SSD1306_DAT);
2800  04c4 7b04          	ld	a,(OFST-6,sp)
2801  04c6 ae0060        	ldw	x,#96
2802  04c9 95            	ld	xh,a
2803  04ca cd00d2        	call	_OLED_write
2805                     ; 366         OLED_write(expanded2, SSD1306_DAT);
2807  04cd 7b05          	ld	a,(OFST-5,sp)
2808  04cf ae0060        	ldw	x,#96
2809  04d2 95            	ld	xh,a
2810  04d3 cd00d2        	call	_OLED_write
2812                     ; 369         OLED_gotoxy(x_pos + (s * 2), y_pos + 1);
2814  04d6 7b0c          	ld	a,(OFST+2,sp)
2815  04d8 4c            	inc	a
2816  04d9 97            	ld	xl,a
2817  04da 7b09          	ld	a,(OFST-1,sp)
2818  04dc 48            	sll	a
2819  04dd 1b0b          	add	a,(OFST+1,sp)
2820  04df 95            	ld	xh,a
2821  04e0 cd011c        	call	_OLED_gotoxy
2823                     ; 370         OLED_write(expanded3, SSD1306_DAT);
2825  04e3 7b06          	ld	a,(OFST-4,sp)
2826  04e5 ae0060        	ldw	x,#96
2827  04e8 95            	ld	xh,a
2828  04e9 cd00d2        	call	_OLED_write
2830                     ; 371         OLED_write(expanded4, SSD1306_DAT);
2832  04ec 7b07          	ld	a,(OFST-3,sp)
2833  04ee ae0060        	ldw	x,#96
2834  04f1 95            	ld	xh,a
2835  04f2 cd00d2        	call	_OLED_write
2837                     ; 336     for(s = 0; s < 6; s++)
2839  04f5 0c09          	inc	(OFST-1,sp)
2843  04f7 7b09          	ld	a,(OFST-1,sp)
2844  04f9 a106          	cp	a,#6
2845  04fb 2403          	jruge	L611
2846  04fd cc0400        	jp	L567
2847  0500               L611:
2848                     ; 373 }
2851  0500 5b0c          	addw	sp,#12
2852  0502 81            	ret
2908                     ; 375 void OLED_print_string_2x(unsigned char x_pos, unsigned char y_pos, char *ch)
2908                     ; 376 {
2909                     	switch	.text
2910  0503               _OLED_print_string_2x:
2912  0503 89            	pushw	x
2913       00000000      OFST:	set	0
2916  0504               L1401:
2917                     ; 379         OLED_print_2xChar(x_pos, y_pos, *ch++);
2919  0504 1e05          	ldw	x,(OFST+5,sp)
2920  0506 1c0001        	addw	x,#1
2921  0509 1f05          	ldw	(OFST+5,sp),x
2922  050b 1d0001        	subw	x,#1
2923  050e f6            	ld	a,(x)
2924  050f 88            	push	a
2925  0510 7b03          	ld	a,(OFST+3,sp)
2926  0512 97            	ld	xl,a
2927  0513 7b02          	ld	a,(OFST+2,sp)
2928  0515 95            	ld	xh,a
2929  0516 cd03e2        	call	_OLED_print_2xChar
2931  0519 84            	pop	a
2932                     ; 380         x_pos += 12;  // 2倍字體寬度
2934  051a 7b01          	ld	a,(OFST+1,sp)
2935  051c ab0c          	add	a,#12
2936  051e 6b01          	ld	(OFST+1,sp),a
2937                     ; 383         if(x_pos > (x_max - 12) && (*ch != '\0'))
2939  0520 7b01          	ld	a,(OFST+1,sp)
2940  0522 a175          	cp	a,#117
2941  0524 2514          	jrult	L3401
2943  0526 1e05          	ldw	x,(OFST+5,sp)
2944  0528 7d            	tnz	(x)
2945  0529 270f          	jreq	L3401
2946                     ; 385             x_pos = 0;
2948  052b 0f01          	clr	(OFST+1,sp)
2949                     ; 386             y_pos++;  // 只移動到下一頁
2951  052d 0c02          	inc	(OFST+2,sp)
2952                     ; 387             if(y_pos > 3) 
2954  052f 7b02          	ld	a,(OFST+2,sp)
2955  0531 a104          	cp	a,#4
2956  0533 2505          	jrult	L3401
2957                     ; 389                 y_pos = 0;
2959  0535 0f02          	clr	(OFST+2,sp)
2960                     ; 390                 OLED_clear_screen();
2962  0537 cd021f        	call	_OLED_clear_screen
2964  053a               L3401:
2965                     ; 393     }while((*ch >= 0x20) && (*ch <= 0x7F));
2967  053a 1e05          	ldw	x,(OFST+5,sp)
2968  053c f6            	ld	a,(x)
2969  053d a120          	cp	a,#32
2970  053f 2507          	jrult	L3501
2972  0541 1e05          	ldw	x,(OFST+5,sp)
2973  0543 f6            	ld	a,(x)
2974  0544 a180          	cp	a,#128
2975  0546 25bc          	jrult	L1401
2976  0548               L3501:
2977                     ; 394 }
2980  0548 85            	popw	x
2981  0549 81            	ret
3031                     ; 396 void OLED_clear_value_area(void)
3031                     ; 397 {
3032                     	switch	.text
3033  054a               _OLED_clear_value_area:
3035  054a 89            	pushw	x
3036       00000002      OFST:	set	2
3039                     ; 401     for(page = 2; page < 4; page++)
3041  054b a602          	ld	a,#2
3042  054d 6b01          	ld	(OFST-1,sp),a
3044  054f               L7701:
3045                     ; 403         OLED_gotoxy(0, page);
3047  054f 7b01          	ld	a,(OFST-1,sp)
3048  0551 5f            	clrw	x
3049  0552 97            	ld	xl,a
3050  0553 cd011c        	call	_OLED_gotoxy
3052                     ; 405         I2C_GenerateSTART(ENABLE);
3054  0556 a601          	ld	a,#1
3055  0558 cd0000        	call	_I2C_GenerateSTART
3058  055b               L7011:
3059                     ; 406         while(!I2C_CheckEvent(I2C_EVENT_MASTER_MODE_SELECT));
3061  055b ae0301        	ldw	x,#769
3062  055e cd0000        	call	_I2C_CheckEvent
3064  0561 4d            	tnz	a
3065  0562 27f7          	jreq	L7011
3066                     ; 408         I2C_Send7bitAddress(SSD1306_I2C_Address, I2C_DIRECTION_TX); 
3068  0564 ae7800        	ldw	x,#30720
3069  0567 cd0000        	call	_I2C_Send7bitAddress
3072  056a               L5111:
3073                     ; 409         while(!I2C_CheckEvent(I2C_EVENT_MASTER_TRANSMITTER_MODE_SELECTED));
3075  056a ae0782        	ldw	x,#1922
3076  056d cd0000        	call	_I2C_CheckEvent
3078  0570 4d            	tnz	a
3079  0571 27f7          	jreq	L5111
3080                     ; 411         I2C_SendData(SSD1306_DAT);
3082  0573 a660          	ld	a,#96
3083  0575 cd0000        	call	_I2C_SendData
3086  0578               L3211:
3087                     ; 412         while(!I2C_CheckEvent(I2C_EVENT_MASTER_BYTE_TRANSMITTING));    
3089  0578 ae0780        	ldw	x,#1920
3090  057b cd0000        	call	_I2C_CheckEvent
3092  057e 4d            	tnz	a
3093  057f 27f7          	jreq	L3211
3094                     ; 414         for(x = 0; x < x_max; x++)
3096  0581 0f02          	clr	(OFST+0,sp)
3098  0583               L7211:
3099                     ; 416            I2C_SendData(0x00);
3101  0583 4f            	clr	a
3102  0584 cd0000        	call	_I2C_SendData
3105  0587               L7311:
3106                     ; 417            while(!I2C_CheckEvent(I2C_EVENT_MASTER_BYTE_TRANSMITTED));  
3108  0587 ae0784        	ldw	x,#1924
3109  058a cd0000        	call	_I2C_CheckEvent
3111  058d 4d            	tnz	a
3112  058e 27f7          	jreq	L7311
3113                     ; 414         for(x = 0; x < x_max; x++)
3115  0590 0c02          	inc	(OFST+0,sp)
3119  0592 7b02          	ld	a,(OFST+0,sp)
3120  0594 a180          	cp	a,#128
3121  0596 25eb          	jrult	L7211
3122                     ; 420         I2C_GenerateSTOP(ENABLE);  
3124  0598 a601          	ld	a,#1
3125  059a cd0000        	call	_I2C_GenerateSTOP
3127                     ; 401     for(page = 2; page < 4; page++)
3129  059d 0c01          	inc	(OFST-1,sp)
3133  059f 7b01          	ld	a,(OFST-1,sp)
3134  05a1 a104          	cp	a,#4
3135  05a3 25aa          	jrult	L7701
3136                     ; 422 }
3139  05a5 85            	popw	x
3140  05a6 81            	ret
3220                     ; 425 void clear_rect_area(unsigned char x_start, unsigned char y_start, 
3220                     ; 426                      unsigned char width, unsigned char height)
3220                     ; 427 {
3221                     	switch	.text
3222  05a7               _clear_rect_area:
3224  05a7 89            	pushw	x
3225  05a8 89            	pushw	x
3226       00000002      OFST:	set	2
3229                     ; 430     for(i = 0; i < width; i++) {
3231  05a9 0f01          	clr	(OFST-1,sp)
3234  05ab 201e          	jra	L1121
3235  05ad               L5021:
3236                     ; 431         for(j = 0; j < height; j++) {
3238  05ad 0f02          	clr	(OFST+0,sp)
3241  05af 2012          	jra	L1221
3242  05b1               L5121:
3243                     ; 432             Draw_Pixel(x_start + i, y_start + j, 0);
3245  05b1 4b00          	push	#0
3246  05b3 7b05          	ld	a,(OFST+3,sp)
3247  05b5 1b03          	add	a,(OFST+1,sp)
3248  05b7 97            	ld	xl,a
3249  05b8 7b04          	ld	a,(OFST+2,sp)
3250  05ba 1b02          	add	a,(OFST+0,sp)
3251  05bc 95            	ld	xh,a
3252  05bd cd0365        	call	_Draw_Pixel
3254  05c0 84            	pop	a
3255                     ; 431         for(j = 0; j < height; j++) {
3257  05c1 0c02          	inc	(OFST+0,sp)
3259  05c3               L1221:
3262  05c3 7b02          	ld	a,(OFST+0,sp)
3263  05c5 1108          	cp	a,(OFST+6,sp)
3264  05c7 25e8          	jrult	L5121
3265                     ; 430     for(i = 0; i < width; i++) {
3267  05c9 0c01          	inc	(OFST-1,sp)
3269  05cb               L1121:
3272  05cb 7b01          	ld	a,(OFST-1,sp)
3273  05cd 1107          	cp	a,(OFST+5,sp)
3274  05cf 25dc          	jrult	L5021
3275                     ; 435 }
3278  05d1 5b04          	addw	sp,#4
3279  05d3 81            	ret
3305                     ; 437 void Low_water(void){
3306                     	switch	.text
3307  05d4               _Low_water:
3311                     ; 439 	OLED_print_Image(water_Full,Display_OFF);	
3313  05d4 4b00          	push	#0
3314  05d6 ae0228        	ldw	x,#_water_Full
3315  05d9 cd01aa        	call	_OLED_print_Image
3317  05dc 84            	pop	a
3318                     ; 440 	delay_ms(100);
3320  05dd ae0064        	ldw	x,#100
3321  05e0 cd0000        	call	_delay_ms
3323                     ; 441 }
3326  05e3 81            	ret
3352                     ; 443 void Full_Water(void){
3353                     	switch	.text
3354  05e4               _Full_Water:
3358                     ; 445 	OLED_print_Image(water_Low,Display_OFF);	
3360  05e4 4b00          	push	#0
3361  05e6 ae0248        	ldw	x,#_water_Low
3362  05e9 cd01aa        	call	_OLED_print_Image
3364  05ec 84            	pop	a
3365                     ; 446 	delay_ms(100);
3367  05ed ae0064        	ldw	x,#100
3368  05f0 cd0000        	call	_delay_ms
3370                     ; 447 }
3373  05f3 81            	ret
3386                     	xdef	_Full_Water
3387                     	xdef	_Low_water
3388                     	xdef	_clear_rect_area
3389                     	xdef	_OLED_clear_value_area
3390                     	xdef	_OLED_print_string_2x
3391                     	xdef	_OLED_print_2xChar
3392                     	xdef	_Draw_Pixel
3393                     	xdef	_OLED_print_int
3394                     	xdef	_OLED_print_string
3395                     	xdef	_OLED_print_char
3396                     	xdef	_OLED_clear_buffer
3397                     	xdef	_OLED_clear_screen
3398                     	xdef	_OLED_print_Image
3399                     	xdef	_OLED_fill
3400                     	xdef	_OLED_gotoxy
3401                     	xdef	_OLED_write
3402                     	xdef	_OLED_init
3403                     	xdef	_OLED_HW_setup
3404                     	xdef	_I2C_setup
3405                     	xref.b	_buffer
3406                     	xref	_I2C_GetFlagStatus
3407                     	xref	_I2C_CheckEvent
3408                     	xref	_I2C_SendData
3409                     	xref	_I2C_Send7bitAddress
3410                     	xref	_I2C_GenerateSTOP
3411                     	xref	_I2C_GenerateSTART
3412                     	xref	_I2C_Cmd
3413                     	xref	_I2C_Init
3414                     	xref	_I2C_DeInit
3415                     	xref	_CLK_GetClockFreq
3416                     	xref	_delay_ms
3417                     	xdef	_water_Low
3418                     	xdef	_water_Full
3419                     	xref.b	c_lreg
3420                     	xref.b	c_x
3439                     	xref	c_lzmp
3440                     	xref	c_ladc
3441                     	xref	c_lumd
3442                     	xref	c_rtol
3443                     	xref	c_lneg
3444                     	xref	c_ltor
3445                     	xref	c_xymov
3446                     	xref	c_ludv
3447                     	end
